Archive member included to satisfy reference by file (symbol)

../bmengine/libbmengine.a(bmengine.o)
                              i_input_atari.o (symbol from plugin) (_jpad1)
/usr/m68k-ataribrown-elf/lib/m68020/softfp/libc.a(checkcpu.o)
                              /usr/m68k-ataribrown-elf/lib/crt0.o (__checkcpu)
/usr/m68k-ataribrown-elf/lib/m68020/softfp/libc.a(crtinit.o)
                              /usr/m68k-ataribrown-elf/lib/crt0.o (__acc_main)
/usr/m68k-ataribrown-elf/lib/m68020/softfp/libc.a(ctype.o)
                              vsnprint.o (symbol from plugin) (__ctype)
/usr/m68k-ataribrown-elf/lib/m68020/softfp/libc.a(getenv.o)
                              /usr/m68k-ataribrown-elf/lib/m68020/softfp/libc.a(crtinit.o) (_getenv)
/usr/m68k-ataribrown-elf/lib/m68020/softfp/libc.a(globals.o)
                              i_system.o (symbol from plugin) (_stderr)
/usr/m68k-ataribrown-elf/lib/m68020/softfp/libc.a(heapbase.o)
                              /usr/m68k-ataribrown-elf/lib/crt0.o (__heapbase)
/usr/m68k-ataribrown-elf/lib/m68020/softfp/libc.a(ident.o)
                              /usr/m68k-ataribrown-elf/lib/crt0.o (___Ident_gnulib)
/usr/m68k-ataribrown-elf/lib/m68020/softfp/libc.a(ident_dummy_gem.o)
                              /usr/m68k-ataribrown-elf/lib/crt0.o (___Ident_gem)
/usr/m68k-ataribrown-elf/lib/m68020/softfp/libc.a(inistack.o)
                              /usr/m68k-ataribrown-elf/lib/m68020/softfp/libc.a(crtinit.o) (__initial_stack)
/usr/m68k-ataribrown-elf/lib/m68020/softfp/libc.a(main.o)
                              /usr/m68k-ataribrown-elf/lib/m68020/softfp/libc.a(crtinit.o) (__main)
/usr/m68k-ataribrown-elf/lib/m68020/softfp/libc.a(malloc.o)
                              /usr/m68k-ataribrown-elf/lib/m68020/softfp/libc.a(main.o) (_malloc)
/usr/m68k-ataribrown-elf/lib/m68020/softfp/libc.a(realloc.o)
                              /usr/m68k-ataribrown-elf/lib/m68020/softfp/libc.a(main.o) (_realloc)
/usr/m68k-ataribrown-elf/lib/m68020/softfp/libc.a(setstack.o)
                              /usr/m68k-ataribrown-elf/lib/m68020/softfp/libc.a(crtinit.o) (__setstack)
/usr/m68k-ataribrown-elf/lib/m68020/softfp/libc.a(stksiz.o)
                              /usr/m68k-ataribrown-elf/lib/crt0.o (__stksize)
/usr/m68k-ataribrown-elf/lib/m68020/softfp/libc.a(unx2dos.o)
                              /usr/m68k-ataribrown-elf/lib/m68020/softfp/libc.a(main.o) (__path_dos2unx)
/usr/m68k-ataribrown-elf/lib/m68020/softfp/libc.a(initsig.o)
                              /usr/m68k-ataribrown-elf/lib/m68020/softfp/libc.a(crtinit.o) (__init_signal)
/usr/m68k-ataribrown-elf/lib/m68020/softfp/libc.a(binmode.o)
                              /usr/m68k-ataribrown-elf/lib/m68020/softfp/libc.a(main.o) (___set_binmode)
/usr/m68k-ataribrown-elf/lib/m68020/softfp/libc.a(defmode.o)
                              /usr/m68k-ataribrown-elf/lib/m68020/softfp/libc.a(main.o) (___default_mode__)
/usr/m68k-ataribrown-elf/lib/m68020/softfp/libc.a(fclose.o)
                              inih/ini.o (symbol from plugin) (_fclose)
/usr/m68k-ataribrown-elf/lib/m68020/softfp/libc.a(fflush.o)
                              i_system.o (symbol from plugin) (_fflush)
/usr/m68k-ataribrown-elf/lib/m68020/softfp/libc.a(fgets.o)
                              inih/ini.o (symbol from plugin) (_fgets)
/usr/m68k-ataribrown-elf/lib/m68020/softfp/libc.a(fileno.o)
                              /usr/m68k-ataribrown-elf/lib/m68020/softfp/libc.a(main.o) (_fileno)
/usr/m68k-ataribrown-elf/lib/m68020/softfp/libc.a(fopen.o)
                              inih/ini.o (symbol from plugin) (_fopen)
/usr/m68k-ataribrown-elf/lib/m68020/softfp/libc.a(fread.o)
                              d_main.o (symbol from plugin) (_fread)
/usr/m68k-ataribrown-elf/lib/m68020/softfp/libc.a(fseek.o)
                              d_main.o (symbol from plugin) (_fseek)
/usr/m68k-ataribrown-elf/lib/m68020/softfp/libc.a(ftell.o)
                              d_main.o (symbol from plugin) (_ftell)
/usr/m68k-ataribrown-elf/lib/m68020/softfp/libc.a(getchar.o)
                              i_system.o (symbol from plugin) (_getchar)
/usr/m68k-ataribrown-elf/lib/m68020/softfp/libc.a(internals.o)
                              /usr/m68k-ataribrown-elf/lib/m68020/softfp/libc.a(fileno.o) (___stdio_check_funcs)
/usr/m68k-ataribrown-elf/lib/m68020/softfp/libc.a(newstream.o)
                              /usr/m68k-ataribrown-elf/lib/m68020/softfp/libc.a(fopen.o) (___newstream)
/usr/m68k-ataribrown-elf/lib/m68020/softfp/libc.a(setbuf.o)
                              d_main.o (symbol from plugin) (_setbuf)
/usr/m68k-ataribrown-elf/lib/m68020/softfp/libc.a(setvbuf.o)
                              /usr/m68k-ataribrown-elf/lib/m68020/softfp/libc.a(main.o) (_setvbuf)
/usr/m68k-ataribrown-elf/lib/m68020/softfp/libc.a(stdio_init.o)
                              /usr/m68k-ataribrown-elf/lib/m68020/softfp/libc.a(internals.o) (___stdio_init_stream)
/usr/m68k-ataribrown-elf/lib/m68020/softfp/libc.a(sysd-stdio.o)
                              /usr/m68k-ataribrown-elf/lib/m68020/softfp/libc.a(fclose.o) (___stdio_close)
/usr/m68k-ataribrown-elf/lib/m68020/softfp/libc.a(atoi.o)
                              /usr/m68k-ataribrown-elf/lib/m68020/softfp/libc.a(crtinit.o) (_atoi)
/usr/m68k-ataribrown-elf/lib/m68020/softfp/libc.a(exit.o)
                              /usr/m68k-ataribrown-elf/lib/m68020/softfp/libc.a(main.o) (_exit)
/usr/m68k-ataribrown-elf/lib/m68020/softfp/libc.a(strtol.o)
                              /usr/m68k-ataribrown-elf/lib/m68020/softfp/libc.a(atoi.o) (_strtol)
/usr/m68k-ataribrown-elf/lib/m68020/softfp/libc.a(bcopy.o)
                              /usr/m68k-ataribrown-elf/lib/m68020/softfp/libc.a(realloc.o) (___bcopy)
/usr/m68k-ataribrown-elf/lib/m68020/softfp/libc.a(bzero.o)
                              /usr/m68k-ataribrown-elf/lib/m68020/softfp/libc.a(malloc.o) (___bzero)
/usr/m68k-ataribrown-elf/lib/m68020/softfp/libc.a(memccpy.o)
                              /usr/m68k-ataribrown-elf/lib/m68020/softfp/libc.a(fgets.o) (___memccpy)
/usr/m68k-ataribrown-elf/lib/m68020/softfp/libc.a(memset.o)
                              /usr/m68k-ataribrown-elf/lib/m68020/softfp/libc.a(internals.o) (_memset)
/usr/m68k-ataribrown-elf/lib/m68020/softfp/libc.a(strcmp.o)
                              /usr/m68k-ataribrown-elf/lib/m68020/softfp/libc.a(unx2dos.o) (_strcmp)
/usr/m68k-ataribrown-elf/lib/m68020/softfp/libc.a(strerror.o)
                              i_net.o (symbol from plugin) (_strerror)
/usr/m68k-ataribrown-elf/lib/m68020/softfp/libc.a(strlen.o)
                              /usr/m68k-ataribrown-elf/lib/m68020/softfp/libc.a(getenv.o) (_strlen)
/usr/m68k-ataribrown-elf/lib/m68020/softfp/libc.a(strncat.o)
                              /usr/m68k-ataribrown-elf/lib/m68020/softfp/libc.a(unx2dos.o) (_strncat)
/usr/m68k-ataribrown-elf/lib/m68020/softfp/libc.a(strncmp.o)
                              /usr/m68k-ataribrown-elf/lib/m68020/softfp/libc.a(getenv.o) (_strncmp)
/usr/m68k-ataribrown-elf/lib/m68020/softfp/libc.a(strncpy.o)
                              /usr/m68k-ataribrown-elf/lib/m68020/softfp/libc.a(main.o) (_strncpy)
/usr/m68k-ataribrown-elf/lib/m68020/softfp/libc.a(strrchr.o)
                              /usr/m68k-ataribrown-elf/lib/m68020/softfp/libc.a(crtinit.o) (_strrchr)
/usr/m68k-ataribrown-elf/lib/m68020/softfp/libc.a(strupr.o)
                              i_sound_atari.o (symbol from plugin) (_strupr)
/usr/m68k-ataribrown-elf/lib/m68020/softfp/libc.a(access.o)
                              d_main.o (symbol from plugin) (_access)
/usr/m68k-ataribrown-elf/lib/m68020/softfp/libc.a(close.o)
                              m_menu.o (symbol from plugin) (_close)
/usr/m68k-ataribrown-elf/lib/m68020/softfp/libc.a(dup2.o)
                              /usr/m68k-ataribrown-elf/lib/m68020/softfp/libc.a(sysd-stdio.o) (___dup2)
/usr/m68k-ataribrown-elf/lib/m68020/softfp/libc.a(fstat.o)
                              /usr/m68k-ataribrown-elf/lib/m68020/softfp/libc.a(main.o) (_fstat)
/usr/m68k-ataribrown-elf/lib/m68020/softfp/libc.a(getgid.o)
                              /usr/m68k-ataribrown-elf/lib/m68020/softfp/libc.a(access.o) (_getgid)
/usr/m68k-ataribrown-elf/lib/m68020/softfp/libc.a(getgroups.o)
                              /usr/m68k-ataribrown-elf/lib/m68020/softfp/libc.a(access.o) (_getgroups)
/usr/m68k-ataribrown-elf/lib/m68020/softfp/libc.a(gethostname.o)
                              i_net.o (symbol from plugin) (_gethostname)
/usr/m68k-ataribrown-elf/lib/m68020/softfp/libc.a(getpagesize.o)
                              /usr/m68k-ataribrown-elf/lib/m68020/softfp/libc.a(malloc.o) (_getpagesize)
/usr/m68k-ataribrown-elf/lib/m68020/softfp/libc.a(getuid.o)
                              /usr/m68k-ataribrown-elf/lib/m68020/softfp/libc.a(access.o) (_getuid)
/usr/m68k-ataribrown-elf/lib/m68020/softfp/libc.a(ioctl.o)
                              i_net.o (symbol from plugin) (_ioctl)
/usr/m68k-ataribrown-elf/lib/m68020/softfp/libc.a(lseek.o)
                              w_wad.o (symbol from plugin) (_lseek)
/usr/m68k-ataribrown-elf/lib/m68020/softfp/libc.a(mkdir.o)
                              d_main.o (symbol from plugin) (_mkdir)
/usr/m68k-ataribrown-elf/lib/m68020/softfp/libc.a(open.o)
                              /usr/m68k-ataribrown-elf/lib/m68020/softfp/libc.a(gethostname.o) (_open)
/usr/m68k-ataribrown-elf/lib/m68020/softfp/libc.a(read.o)
                              /usr/m68k-ataribrown-elf/lib/m68020/softfp/libc.a(gethostname.o) (_read)
/usr/m68k-ataribrown-elf/lib/m68020/softfp/libc.a(sbrk.o)
                              /usr/m68k-ataribrown-elf/lib/m68020/softfp/libc.a(malloc.o) (___sbrk)
/usr/m68k-ataribrown-elf/lib/m68020/softfp/libc.a(stat.o)
                              d_main.o (symbol from plugin) (_stat)
/usr/m68k-ataribrown-elf/lib/m68020/softfp/libc.a(sysctl.o)
                              /usr/m68k-ataribrown-elf/lib/m68020/softfp/libc.a(gethostname.o) (_sysctl)
/usr/m68k-ataribrown-elf/lib/m68020/softfp/libc.a(write.o)
                              /usr/m68k-ataribrown-elf/lib/m68020/softfp/libc.a(lseek.o) (_write)
/usr/m68k-ataribrown-elf/lib/m68020/softfp/libc.a(bind.o)
                              i_net.o (symbol from plugin) (_bind)
/usr/m68k-ataribrown-elf/lib/m68020/softfp/libc.a(gethostnamadr.o)
                              i_net.o (symbol from plugin) (_gethostbyname)
/usr/m68k-ataribrown-elf/lib/m68020/softfp/libc.a(ident_sock.o)
                              /usr/m68k-ataribrown-elf/lib/crt0.o (___Ident_socketlib)
/usr/m68k-ataribrown-elf/lib/m68020/softfp/libc.a(inet_addr.o)
                              /usr/m68k-ataribrown-elf/lib/m68020/softfp/libc.a(gethostnamadr.o) (_inet_aton)
/usr/m68k-ataribrown-elf/lib/m68020/softfp/libc.a(recvfrom.o)
                              i_net.o (symbol from plugin) (_recvfrom)
/usr/m68k-ataribrown-elf/lib/m68020/softfp/libc.a(res_comp.o)
                              /usr/m68k-ataribrown-elf/lib/m68020/softfp/libc.a(gethostnamadr.o) (_dn_expand)
/usr/m68k-ataribrown-elf/lib/m68020/softfp/libc.a(res_query.o)
                              /usr/m68k-ataribrown-elf/lib/m68020/softfp/libc.a(gethostnamadr.o) (_res_query)
/usr/m68k-ataribrown-elf/lib/m68020/softfp/libc.a(res_send.o)
                              /usr/m68k-ataribrown-elf/lib/m68020/softfp/libc.a(res_query.o) (_res_send)
/usr/m68k-ataribrown-elf/lib/m68020/softfp/libc.a(send.o)
                              /usr/m68k-ataribrown-elf/lib/m68020/softfp/libc.a(res_send.o) (_send)
/usr/m68k-ataribrown-elf/lib/m68020/softfp/libc.a(sendmsg.o)
                              /usr/m68k-ataribrown-elf/lib/m68020/softfp/libc.a(res_send.o) (_sendmsg)
/usr/m68k-ataribrown-elf/lib/m68020/softfp/libc.a(sendto.o)
                              /usr/m68k-ataribrown-elf/lib/m68020/softfp/libc.a(res_send.o) (_sendto)
/usr/m68k-ataribrown-elf/lib/m68020/softfp/libc.a(sncpy.o)
                              /usr/m68k-ataribrown-elf/lib/m68020/softfp/libc.a(recvfrom.o) (__sncpy)
/usr/m68k-ataribrown-elf/lib/m68020/softfp/libc.a(socket.o)
                              /usr/m68k-ataribrown-elf/lib/m68020/softfp/libc.a(gethostnamadr.o) (_socket)
/usr/m68k-ataribrown-elf/lib/m68020/softfp/libc.a(sockets_global.o)
                              /usr/m68k-ataribrown-elf/lib/m68020/softfp/libc.a(bind.o) (___libc_newsockets)
/usr/m68k-ataribrown-elf/lib/m68020/softfp/libc.a(alglobal.o)
                              /usr/m68k-ataribrown-elf/lib/m68020/softfp/libc.a(ioctl.o) (___funcs)
/usr/m68k-ataribrown-elf/lib/m68020/softfp/libc.a(assert.o)
                              /usr/m68k-ataribrown-elf/lib/m68020/softfp/libc.a(malloc.o) (___assert_fail)
/usr/m68k-ataribrown-elf/lib/m68020/softfp/libc.a(console.o)
                              /usr/m68k-ataribrown-elf/lib/m68020/softfp/libc.a(read.o) (__console_read_byte)
/usr/m68k-ataribrown-elf/lib/m68020/softfp/libc.a(do_fstat.o)
                              /usr/m68k-ataribrown-elf/lib/m68020/softfp/libc.a(stdio_init.o) (___do_fstat)
/usr/m68k-ataribrown-elf/lib/m68020/softfp/libc.a(do_stat.o)
                              /usr/m68k-ataribrown-elf/lib/m68020/softfp/libc.a(stat.o) (___do_stat)
/usr/m68k-ataribrown-elf/lib/m68020/softfp/libc.a(enoent.o)
                              /usr/m68k-ataribrown-elf/lib/m68020/softfp/libc.a(mkdir.o) (__enoent)
/usr/m68k-ataribrown-elf/lib/m68020/softfp/libc.a(getcookie.o)
                              /usr/m68k-ataribrown-elf/lib/m68020/softfp/libc.a(main.o) (_Getcookie)
/usr/m68k-ataribrown-elf/lib/m68020/softfp/libc.a(getsysvar.o)
                              /usr/m68k-ataribrown-elf/lib/m68020/softfp/libc.a(main.o) (_get_sysvar)
/usr/m68k-ataribrown-elf/lib/m68020/softfp/libc.a(inode.o)
                              /usr/m68k-ataribrown-elf/lib/m68020/softfp/libc.a(do_fstat.o) (___inode)
/usr/m68k-ataribrown-elf/lib/m68020/softfp/libc.a(isatty.o)
                              /usr/m68k-ataribrown-elf/lib/m68020/softfp/libc.a(main.o) (_isatty)
/usr/m68k-ataribrown-elf/lib/m68020/softfp/libc.a(isctty.o)
                              /usr/m68k-ataribrown-elf/lib/m68020/softfp/libc.a(ioctl.o) (__isctty)
/usr/m68k-ataribrown-elf/lib/m68020/softfp/libc.a(libc_exit.o)
                              /usr/m68k-ataribrown-elf/lib/m68020/softfp/libc.a(exit.o) (__exit)
/usr/m68k-ataribrown-elf/lib/m68020/softfp/libc.a(quickstat.o)
                              /usr/m68k-ataribrown-elf/lib/m68020/softfp/libc.a(access.o) (___quickstat)
/usr/m68k-ataribrown-elf/lib/m68020/softfp/libc.a(toxxx.o)
                              /usr/m68k-ataribrown-elf/lib/m68020/softfp/libc.a(strtol.o) (_toupper)
/usr/m68k-ataribrown-elf/lib/m68020/softfp/libc.a(uidgid.o)
                              /usr/m68k-ataribrown-elf/lib/m68020/softfp/libc.a(getgid.o) (___gid)
/usr/m68k-ataribrown-elf/lib/m68020/softfp/libc.a(unixtime.o)
                              /usr/m68k-ataribrown-elf/lib/m68020/softfp/libc.a(do_fstat.o) (___unixtime)
/usr/m68k-ataribrown-elf/lib/m68020/softfp/libc.a(raise.o)
                              /usr/m68k-ataribrown-elf/lib/m68020/softfp/libc.a(read.o) (_raise)
/usr/m68k-ataribrown-elf/lib/m68020/softfp/libc.a(getpwuid.o)
                              /usr/m68k-ataribrown-elf/lib/m68020/softfp/libc.a(getgroups.o) (_getpwuid)
/usr/m68k-ataribrown-elf/lib/m68020/softfp/libc.a(getpwuid_r.o)
                              /usr/m68k-ataribrown-elf/lib/m68020/softfp/libc.a(getpwuid.o) (___getpwuid_r)
/usr/m68k-ataribrown-elf/lib/m68020/softfp/libc.a(grp.o)
                              /usr/m68k-ataribrown-elf/lib/m68020/softfp/libc.a(getgroups.o) (_setgrent)
/usr/m68k-ataribrown-elf/lib/m68020/softfp/libc.a(fcloseall.o)
                              /usr/m68k-ataribrown-elf/lib/m68020/softfp/libc.a(exit.o) (___fcloseall)
/usr/m68k-ataribrown-elf/lib/m68020/softfp/libc.a(fprintf.o)
                              /usr/m68k-ataribrown-elf/lib/m68020/softfp/libc.a(gethostnamadr.o) (_fprintf)
/usr/m68k-ataribrown-elf/lib/m68020/softfp/libc.a(fwrite.o)
                              /usr/m68k-ataribrown-elf/lib/m68020/softfp/libc.a(gethostnamadr.o) (_fwrite)
/usr/m68k-ataribrown-elf/lib/m68020/softfp/libc.a(itoa-digits.o)
                              /usr/m68k-ataribrown-elf/lib/m68020/softfp/libc.a(assert.o) (__itoa_lower_digits)
/usr/m68k-ataribrown-elf/lib/m68020/softfp/libc.a(rewind.o)
                              /usr/m68k-ataribrown-elf/lib/m68020/softfp/libc.a(gethostnamadr.o) (_rewind)
/usr/m68k-ataribrown-elf/lib/m68020/softfp/libc.a(snprintf.o)
                              /usr/m68k-ataribrown-elf/lib/m68020/softfp/libc.a(strerror.o) (_snprintf)
/usr/m68k-ataribrown-elf/lib/m68020/softfp/libc.a(sprintf.o)
                              /usr/m68k-ataribrown-elf/lib/m68020/softfp/libc.a(gethostnamadr.o) (_sprintf)
/usr/m68k-ataribrown-elf/lib/m68020/softfp/libc.a(vfprintf.o)
                              /usr/m68k-ataribrown-elf/lib/m68020/softfp/libc.a(fprintf.o) (_vfprintf)
/usr/m68k-ataribrown-elf/lib/m68020/softfp/libc.a(vsnprintf.o)
                              /usr/m68k-ataribrown-elf/lib/m68020/softfp/libc.a(snprintf.o) (___vsnprintf)
/usr/m68k-ataribrown-elf/lib/m68020/softfp/libc.a(vsprintf.o)
                              /usr/m68k-ataribrown-elf/lib/m68020/softfp/libc.a(sprintf.o) (_vsprintf)
/usr/m68k-ataribrown-elf/lib/m68020/softfp/libc.a(strtoul.o)
                              /usr/m68k-ataribrown-elf/lib/m68020/softfp/libc.a(open.o) (_strtoul)
/usr/m68k-ataribrown-elf/lib/m68020/softfp/libc.a(bcmp.o)
                              /usr/m68k-ataribrown-elf/lib/m68020/softfp/libc.a(gethostnamadr.o) (_bcmp)
/usr/m68k-ataribrown-elf/lib/m68020/softfp/libc.a(memchr.o)
                              /usr/m68k-ataribrown-elf/lib/m68020/softfp/libc.a(fwrite.o) (_memchr)
/usr/m68k-ataribrown-elf/lib/m68020/softfp/libc.a(mempcpy.o)
                              /usr/m68k-ataribrown-elf/lib/m68020/softfp/libc.a(vfprintf.o) (___mempcpy)
/usr/m68k-ataribrown-elf/lib/m68020/softfp/libc.a(strcasecmp.o)
                              /usr/m68k-ataribrown-elf/lib/m68020/softfp/libc.a(gethostnamadr.o) (_stricmp)
/usr/m68k-ataribrown-elf/lib/m68020/softfp/libc.a(strchr.o)
                              /usr/m68k-ataribrown-elf/lib/m68020/softfp/libc.a(do_stat.o) (_index)
/usr/m68k-ataribrown-elf/lib/m68020/softfp/libc.a(strcpy.o)
                              /usr/m68k-ataribrown-elf/lib/m68020/softfp/libc.a(gethostnamadr.o) (_strcpy)
/usr/m68k-ataribrown-elf/lib/m68020/softfp/libc.a(strerror_r.o)
                              /usr/m68k-ataribrown-elf/lib/m68020/softfp/libc.a(vfprintf.o) (___strerror_r)
/usr/m68k-ataribrown-elf/lib/m68020/softfp/libc.a(strncasecmp.o)
                              /usr/m68k-ataribrown-elf/lib/m68020/softfp/libc.a(gethostnamadr.o) (_strnicmp)
/usr/m68k-ataribrown-elf/lib/m68020/softfp/libc.a(strnlen.o)
                              /usr/m68k-ataribrown-elf/lib/m68020/softfp/libc.a(vfprintf.o) (_strnlen)
/usr/m68k-ataribrown-elf/lib/m68020/softfp/libc.a(strpbrk.o)
                              /usr/m68k-ataribrown-elf/lib/m68020/softfp/libc.a(gethostnamadr.o) (_strpbrk)
/usr/m68k-ataribrown-elf/lib/m68020/softfp/libc.a(strtok.o)
                              /usr/m68k-ataribrown-elf/lib/m68020/softfp/libc.a(gethostnamadr.o) (_strtok)
/usr/m68k-ataribrown-elf/lib/m68020/softfp/libc.a(strtok_r.o)
                              /usr/m68k-ataribrown-elf/lib/m68020/softfp/libc.a(strtok.o) (___strtok_r)
/usr/m68k-ataribrown-elf/lib/m68020/softfp/libc.a(localtime.o)
                              /usr/m68k-ataribrown-elf/lib/m68020/softfp/libc.a(unixtime.o) (_mktime)
/usr/m68k-ataribrown-elf/lib/m68020/softfp/libc.a(chmod.o)
                              /usr/m68k-ataribrown-elf/lib/m68020/softfp/libc.a(open.o) (_chmod)
/usr/m68k-ataribrown-elf/lib/m68020/softfp/libc.a(getegid.o)
                              /usr/m68k-ataribrown-elf/lib/m68020/softfp/libc.a(getgroups.o) (_getegid)
/usr/m68k-ataribrown-elf/lib/m68020/softfp/libc.a(geteuid.o)
                              /usr/m68k-ataribrown-elf/lib/m68020/softfp/libc.a(getgroups.o) (_geteuid)
/usr/m68k-ataribrown-elf/lib/m68020/softfp/libc.a(getpid.o)
                              /usr/m68k-ataribrown-elf/lib/m68020/softfp/libc.a(raise.o) (___getpid)
/usr/m68k-ataribrown-elf/lib/m68020/softfp/libc.a(kill.o)
                              /usr/m68k-ataribrown-elf/lib/m68020/softfp/libc.a(raise.o) (___kill)
/usr/m68k-ataribrown-elf/lib/m68020/softfp/libc.a(select.o)
                              /usr/m68k-ataribrown-elf/lib/m68020/softfp/libc.a(res_send.o) (_select)
/usr/m68k-ataribrown-elf/lib/m68020/softfp/libc.a(time.o)
                              /usr/m68k-ataribrown-elf/lib/m68020/softfp/libc.a(do_fstat.o) (_time)
/usr/m68k-ataribrown-elf/lib/m68020/softfp/libc.a(connect.o)
                              /usr/m68k-ataribrown-elf/lib/m68020/softfp/libc.a(res_send.o) (_connect)
/usr/m68k-ataribrown-elf/lib/m68020/softfp/libc.a(recv.o)
                              /usr/m68k-ataribrown-elf/lib/m68020/softfp/libc.a(res_send.o) (_recv)
/usr/m68k-ataribrown-elf/lib/m68020/softfp/libc.a(res_init.o)
                              /usr/m68k-ataribrown-elf/lib/m68020/softfp/libc.a(res_query.o) (_res_init)
/usr/m68k-ataribrown-elf/lib/m68020/softfp/libc.a(res_mkquery.o)
                              /usr/m68k-ataribrown-elf/lib/m68020/softfp/libc.a(res_query.o) (_res_mkquery)
/usr/m68k-ataribrown-elf/lib/m68020/softfp/libc.a(abort.o)
                              /usr/m68k-ataribrown-elf/lib/m68020/softfp/libc.a(assert.o) (_abort)
/usr/m68k-ataribrown-elf/lib/m68020/softfp/libc.a(calloc.o)
                              /usr/m68k-ataribrown-elf/lib/m68020/softfp/libc.a(localtime.o) (_calloc)
/usr/m68k-ataribrown-elf/lib/m68020/softfp/libc.a(fgetpwent_r.o)
                              /usr/m68k-ataribrown-elf/lib/m68020/softfp/libc.a(getpwuid_r.o) (_fgetpwent_r)
/usr/m68k-ataribrown-elf/lib/m68020/softfp/libc.a(_itoa.o)
                              /usr/m68k-ataribrown-elf/lib/m68020/softfp/libc.a(vfprintf.o) (__itoa)
/usr/m68k-ataribrown-elf/lib/m68020/softfp/libc.a(clearerr.o)
                              /usr/m68k-ataribrown-elf/lib/m68020/softfp/libc.a(rewind.o) (_clearerr)
/usr/m68k-ataribrown-elf/lib/m68020/softfp/libc.a(lockfile.o)
                              /usr/m68k-ataribrown-elf/lib/m68020/softfp/libc.a(vfprintf.o) (___flockfile)
/usr/m68k-ataribrown-elf/lib/m68020/softfp/libc.a(printf_fp.o)
                              /usr/m68k-ataribrown-elf/lib/m68020/softfp/libc.a(vfprintf.o) (___printf_fp)
/usr/m68k-ataribrown-elf/lib/m68020/softfp/libc.a(printf_fphex.o)
                              /usr/m68k-ataribrown-elf/lib/m68020/softfp/libc.a(vfprintf.o) (___printf_fphex)
/usr/m68k-ataribrown-elf/lib/m68020/softfp/libc.a(reg-printf.o)
                              /usr/m68k-ataribrown-elf/lib/m68020/softfp/libc.a(vfprintf.o) (___printf_function_table)
/usr/m68k-ataribrown-elf/lib/m68020/softfp/libc.a(ungetc.o)
                              /usr/m68k-ataribrown-elf/lib/m68020/softfp/libc.a(fgetpwent_r.o) (_ungetc)
/usr/m68k-ataribrown-elf/lib/m68020/softfp/libc.a(fpioconst.o)
                              /usr/m68k-ataribrown-elf/lib/m68020/softfp/libc.a(printf_fp.o) (__fpioconst_pow10)
/usr/m68k-ataribrown-elf/lib/m68020/softfp/libc.a(asctime.o)
                              /usr/m68k-ataribrown-elf/lib/m68020/softfp/libc.a(localtime.o) (_asctime_r)
/usr/m68k-ataribrown-elf/lib/m68020/softfp/libc.a(strftime.o)
                              /usr/m68k-ataribrown-elf/lib/m68020/softfp/libc.a(asctime.o) (_strftime)
/usr/m68k-ataribrown-elf/lib/m68020/softfp/libc.a(gettimeofday.o)
                              /usr/m68k-ataribrown-elf/lib/m68020/softfp/libc.a(time.o) (___gettimeofday)
/usr/m68k-ataribrown-elf/lib/m68020/softfp/libc.a(poll.o)
                              /usr/m68k-ataribrown-elf/lib/m68020/softfp/libc.a(select.o) (___poll)
/usr/m68k-ataribrown-elf/lib/m68020/softfp/libc.a(inet_makeaddr.o)
                              /usr/m68k-ataribrown-elf/lib/m68020/softfp/libc.a(res_init.o) (_inet_makeaddr)
/usr/m68k-ataribrown-elf/lib/m68020/softfp/libc.a(dbl2mpn.o)
                              /usr/m68k-ataribrown-elf/lib/m68020/softfp/libc.a(printf_fp.o) (___mpn_extract_double)
/usr/m68k-ataribrown-elf/lib/m68020/softfp/libc.a(ldbl2mpn.o)
                              /usr/m68k-ataribrown-elf/lib/m68020/softfp/libc.a(printf_fp.o) (___mpn_extract_long_double)
/usr/m68k-ataribrown-elf/lib/m68020/softfp/libc.a(mpn-cmp.o)
                              /usr/m68k-ataribrown-elf/lib/m68020/softfp/libc.a(printf_fp.o) (___mpn_cmp)
/usr/m68k-ataribrown-elf/lib/m68020/softfp/libc.a(mpn-divrem.o)
                              /usr/m68k-ataribrown-elf/lib/m68020/softfp/libc.a(printf_fp.o) (___mpn_divrem)
/usr/m68k-ataribrown-elf/lib/m68020/softfp/libc.a(mpn-lshift.o)
                              /usr/m68k-ataribrown-elf/lib/m68020/softfp/libc.a(printf_fp.o) (___mpn_lshift)
/usr/m68k-ataribrown-elf/lib/m68020/softfp/libc.a(mpn-mul.o)
                              /usr/m68k-ataribrown-elf/lib/m68020/softfp/libc.a(printf_fp.o) (___mpn_mul)
/usr/m68k-ataribrown-elf/lib/m68020/softfp/libc.a(mpn-mul_1.o)
                              /usr/m68k-ataribrown-elf/lib/m68020/softfp/libc.a(printf_fp.o) (___mpn_mul_1)
/usr/m68k-ataribrown-elf/lib/m68020/softfp/libc.a(mpn-mul_n.o)
                              /usr/m68k-ataribrown-elf/lib/m68020/softfp/libc.a(mpn-mul.o) (___mpn_impn_mul_n)
/usr/m68k-ataribrown-elf/lib/m68020/softfp/libc.a(mpn-rshift.o)
                              /usr/m68k-ataribrown-elf/lib/m68020/softfp/libc.a(printf_fp.o) (___mpn_rshift)
/usr/m68k-ataribrown-elf/lib/m68020/softfp/libc.a(mpn-sub_n.o)
                              /usr/m68k-ataribrown-elf/lib/m68020/softfp/libc.a(mpn-divrem.o) (___mpn_sub_n)
/usr/m68k-ataribrown-elf/lib/m68020/softfp/libc.a(mpn-submul_1.o)
                              /usr/m68k-ataribrown-elf/lib/m68020/softfp/libc.a(mpn-divrem.o) (___mpn_submul_1)
/usr/m68k-ataribrown-elf/lib/m68020/softfp/libc.a(s_isinf.o)
                              /usr/m68k-ataribrown-elf/lib/m68020/softfp/libc.a(printf_fp.o) (___isinf)
/usr/m68k-ataribrown-elf/lib/m68020/softfp/libc.a(s_isinfl.o)
                              /usr/m68k-ataribrown-elf/lib/m68020/softfp/libc.a(printf_fp.o) (___isinfl)
/usr/m68k-ataribrown-elf/lib/m68020/softfp/libc.a(s_isnan.o)
                              /usr/m68k-ataribrown-elf/lib/m68020/softfp/libc.a(printf_fp.o) (___isnan)
/usr/m68k-ataribrown-elf/lib/m68020/softfp/libc.a(s_isnanl.o)
                              /usr/m68k-ataribrown-elf/lib/m68020/softfp/libc.a(printf_fp.o) (___isnanl)
/usr/m68k-ataribrown-elf/lib/m68020/softfp/libc.a(s_signbit.o)
                              /usr/m68k-ataribrown-elf/lib/m68020/softfp/libc.a(printf_fphex.o) (___signbit)
/usr/m68k-ataribrown-elf/lib/m68020/softfp/libc.a(s_signbitl.o)
                              /usr/m68k-ataribrown-elf/lib/m68020/softfp/libc.a(printf_fphex.o) (___signbitl)
/usr/m68k-ataribrown-elf/lib/m68020/softfp/libc.a(setlocale.o)
                              /usr/m68k-ataribrown-elf/lib/m68020/softfp/libc.a(strftime.o) (_setlocale)
/usr/m68k-ataribrown-elf/lib/m68020/softfp/libc.a(fputc.o)
                              /usr/m68k-ataribrown-elf/lib/m68020/softfp/libc.a(strftime.o) (_fputc)
/usr/m68k-ataribrown-elf/lib/m68020/softfp/libc.a(mpn-add_n.o)
                              /usr/m68k-ataribrown-elf/lib/m68020/softfp/libc.a(mpn-divrem.o) (___mpn_add_n)
/usr/m68k-ataribrown-elf/lib/m68020/softfp/libc.a(mpn-addmul_1.o)
                              /usr/m68k-ataribrown-elf/lib/m68020/softfp/libc.a(mpn-mul.o) (___mpn_addmul_1)
/lib/gcc/m68k-ataribrown-elf/6.2.0/m68020/softfp/libgcc.a(_double.o)
                              /usr/m68k-ataribrown-elf/lib/m68020/softfp/libc.a(localtime.o) (___adddf3)
/lib/gcc/m68k-ataribrown-elf/6.2.0/m68020/softfp/libgcc.a(_floatex.o)
                              /lib/gcc/m68k-ataribrown-elf/6.2.0/m68020/softfp/libgcc.a(_double.o) (__fpCCR)
/lib/gcc/m68k-ataribrown-elf/6.2.0/m68020/softfp/libgcc.a(_ltdf2.o)
                              /usr/m68k-ataribrown-elf/lib/m68020/softfp/libc.a(printf_fp.o) (___ltdf2)
/lib/gcc/m68k-ataribrown-elf/6.2.0/m68020/softfp/libgcc.a(fpgnulib.o)
                              /usr/m68k-ataribrown-elf/lib/m68020/softfp/libc.a(localtime.o) (___floatsidf)
/lib/gcc/m68k-ataribrown-elf/6.2.0/m68020/softfp/libgcc.a(xfgnulib.o)
                              /usr/m68k-ataribrown-elf/lib/m68020/softfp/libc.a(printf_fp.o) (___ltxf2)
/usr/m68k-ataribrown-elf/lib/m68020/softfp/libc.a(fscanf.o)
                              /tmp/ccWJ2D8E.ltrans1.ltrans.o (_fscanf)
/usr/m68k-ataribrown-elf/lib/m68020/softfp/libc.a(printf.o)
                              /tmp/ccWJ2D8E.ltrans13.ltrans.o (_printf)
/usr/m68k-ataribrown-elf/lib/m68020/softfp/libc.a(sscanf.o)
                              /tmp/ccWJ2D8E.ltrans1.ltrans.o (_sscanf)
/usr/m68k-ataribrown-elf/lib/m68020/softfp/libc.a(vfscanf.o)
                              /usr/m68k-ataribrown-elf/lib/m68020/softfp/libc.a(fscanf.o) (___vfscanf)
/usr/m68k-ataribrown-elf/lib/m68020/softfp/libc.a(vsscanf.o)
                              /usr/m68k-ataribrown-elf/lib/m68020/softfp/libc.a(sscanf.o) (___vsscanf)
/usr/m68k-ataribrown-elf/lib/m68020/softfp/libc.a(strtod.o)
                              /usr/m68k-ataribrown-elf/lib/m68020/softfp/libc.a(vfscanf.o) (_strtod)
/usr/m68k-ataribrown-elf/lib/m68020/softfp/libc.a(strtof.o)
                              /usr/m68k-ataribrown-elf/lib/m68020/softfp/libc.a(vfscanf.o) (_strtof)
/usr/m68k-ataribrown-elf/lib/m68020/softfp/libc.a(strtold.o)
                              /usr/m68k-ataribrown-elf/lib/m68020/softfp/libc.a(vfscanf.o) (_strtold)
/usr/m68k-ataribrown-elf/lib/m68020/softfp/libc.a(strtoll.o)
                              /usr/m68k-ataribrown-elf/lib/m68020/softfp/libc.a(vfscanf.o) (_strtoll)
/usr/m68k-ataribrown-elf/lib/m68020/softfp/libc.a(strtoull.o)
                              /usr/m68k-ataribrown-elf/lib/m68020/softfp/libc.a(vfscanf.o) (_strtoull)
/usr/m68k-ataribrown-elf/lib/m68020/softfp/libc.a(mpn2dbl.o)
                              /usr/m68k-ataribrown-elf/lib/m68020/softfp/libc.a(strtod.o) (___mpn_construct_double)
/usr/m68k-ataribrown-elf/lib/m68020/softfp/libc.a(mpn2flt.o)
                              /usr/m68k-ataribrown-elf/lib/m68020/softfp/libc.a(strtof.o) (___mpn_construct_float)
/usr/m68k-ataribrown-elf/lib/m68020/softfp/libc.a(mpn2ldbl.o)
                              /usr/m68k-ataribrown-elf/lib/m68020/softfp/libc.a(strtold.o) (___mpn_construct_long_double)
/lib/gcc/m68k-ataribrown-elf/6.2.0/m68020/softfp/libgcc.a(_muldi3.o)
                              /usr/m68k-ataribrown-elf/lib/m68020/softfp/libc.a(strtoll.o) (___muldi3)
/lib/gcc/m68k-ataribrown-elf/6.2.0/m68020/softfp/libgcc.a(_udivdi3.o)
                              /usr/m68k-ataribrown-elf/lib/m68020/softfp/libc.a(strtoll.o) (___udivdi3)
/lib/gcc/m68k-ataribrown-elf/6.2.0/m68020/softfp/libgcc.a(_umoddi3.o)
                              /usr/m68k-ataribrown-elf/lib/m68020/softfp/libc.a(strtoll.o) (___umoddi3)

Allocating common symbols
Common symbol       size              file

_load_e             0x4               m_menu.o (symbol from plugin)
_viewz              0x4               r_main.o (symbol from plugin)
_crushchange        0x1               p_map.o (symbol from plugin)
_sprites            0x4               /tmp/ccWJ2D8E.ltrans2.ltrans.o
_ds_x1              0x4               r_draw.o (symbol from plugin)
_rejectmatrix       0x4               p_setup.o (symbol from plugin)
_x_double           0x2               i_video_atari.o (symbol from plugin)
_texturewidthmask   0x4               r_data.o (symbol from plugin)
_savebuffer         0x4               g_game.o (symbol from plugin)
_bulletslope        0x4               p_pspr.o (symbol from plugin)
_viletryy           0x4               p_enemy.o (symbol from plugin)
_dc_translation     0x4               r_draw.o (symbol from plugin)
_dc_yh              0x4               r_draw.o (symbol from plugin)
_linecount          0x4               r_main.o (symbol from plugin)
_fuzzcolfunc        0x4               r_main.o (symbol from plugin)
___has_no_ssystem   0x4               /usr/m68k-ataribrown-elf/lib/m68020/softfp/libc.a(globals.o)
_numspritelumps     0x4               r_data.o (symbol from plugin)
_msbuf              0x200             /tmp/ccWJ2D8E.ltrans25.ltrans.o
___aline            0x4               /usr/m68k-ataribrown-elf/lib/m68020/softfp/libc.a(alglobal.o)
_zlight             0x2000            r_main.o (symbol from plugin)
_remoteresend       0x8               d_net.o (symbol from plugin)
___open_stat        0xf0              /usr/m68k-ataribrown-elf/lib/m68020/softfp/libc.a(isatty.o)
_extralight         0x4               /tmp/ccWJ2D8E.ltrans4.ltrans.o
_dclicktime         0x4               g_game.o (symbol from plugin)
_lastspritelump     0x4               r_data.o (symbol from plugin)
_h_errno            0x4               /usr/m68k-ataribrown-elf/lib/m68020/softfp/libc.a(gethostnamadr.o)
_braintargeton      0x4               p_enemy.o (symbol from plugin)
_ds_yfrac           0x4               r_draw.o (symbol from plugin)
_main_e             0x4               m_menu.o (symbol from plugin)
_spryscale          0x4               r_things.o (symbol from plugin)
_numsubsectors      0x4               p_setup.o (symbol from plugin)
_spanfunc           0x4               r_main.o (symbol from plugin)
___mint             0x4               /usr/m68k-ataribrown-elf/lib/m68020/softfp/libc.a(globals.o)
_y_double           0x2               i_video_atari.o (symbol from plugin)
_title              0x80              d_main.o (symbol from plugin)
_test               0x4               p_mobj.o (symbol from plugin)
_frametics          0x10              d_net.o (symbol from plugin)
_dc_x               0x4               r_draw.o (symbol from plugin)
_projection         0x4               r_main.o (symbol from plugin)
__num_at_exit       0x4               /usr/m68k-ataribrown-elf/lib/m68020/softfp/libc.a(globals.o)
_secondslideline    0x4               p_map.o (symbol from plugin)
___printf_function_table
                    0x4               /usr/m68k-ataribrown-elf/lib/m68020/softfp/libc.a(reg-printf.o)
_bodyque            0x80              g_game.o (symbol from plugin)
_dclicks2           0x4               g_game.o (symbol from plugin)
_dc_texturemid      0x4               r_draw.o (symbol from plugin)
_loopcount          0x4               r_main.o (symbol from plugin)
_ds_ystep           0x4               r_draw.o (symbol from plugin)
_mceilingclip       0x4               r_things.o (symbol from plugin)
_yplay              0x2               i_video_atari.o (symbol from plugin)
_oldnettics         0x4               d_net.o (symbol from plugin)
_t2x                0x4               p_sight.o (symbol from plugin)
_scalelightfixed    0xc0              r_main.o (symbol from plugin)
_dirtysectors       0x400             /tmp/ccWJ2D8E.ltrans15.ltrans.o
_fixedcolormap      0x4               r_main.o (symbol from plugin)
_newvissprite       0x4               r_things.o (symbol from plugin)
_tracking           0x100             i_input_atari.o (symbol from plugin)
_lines              0x4               /tmp/ccWJ2D8E.ltrans15.ltrans.o
_ptflags            0x4               p_maputl.o (symbol from plugin)
_ricochet           0x18              p_map.o (symbol from plugin)
_skytexturemid      0x4               r_sky.o (symbol from plugin)
_columnofs          0x1180            r_draw.o (symbol from plugin)
_environ            0x4               /usr/m68k-ataribrown-elf/lib/m68020/softfp/libc.a(globals.o)
_screenheightarray  0x280             r_things.o (symbol from plugin)
_linewidth          0x2               /tmp/ccWJ2D8E.ltrans14.ltrans.o
_localcmds          0x78              d_net.o (symbol from plugin)
__sig_handler       0x80              /usr/m68k-ataribrown-elf/lib/m68020/softfp/libc.a(initsig.o)
_scalelight         0xc00             r_main.o (symbol from plugin)
_sscount            0x4               r_main.o (symbol from plugin)
_lastflat           0x4               r_data.o (symbol from plugin)
_VCopyRect_events   0x400             v_video.o (symbol from plugin)
_newgame_e          0x4               m_menu.o (symbol from plugin)
_vissprite_p        0x4               r_things.o (symbol from plugin)
_sprtopscreen       0x4               r_things.o (symbol from plugin)
_spritelights       0x4               r_things.o (symbol from plugin)
___printf_arginfo_table
                    0x400             /usr/m68k-ataribrown-elf/lib/m68020/softfp/libc.a(reg-printf.o)
_dirtysectorlist    0x800             /tmp/ccWJ2D8E.ltrans15.ltrans.o
_wadfile            0x400             d_main.o (symbol from plugin)
_ds_x2              0x4               r_draw.o (symbol from plugin)
_read_e2            0x4               m_menu.o (symbol from plugin)
_overflowsprite     0x3c              r_things.o (symbol from plugin)
_dc_yl              0x4               r_draw.o (symbol from plugin)
_viewangle          0x4               r_main.o (symbol from plugin)
_drone              0x1               d_main.o (symbol from plugin)
_ds_source          0x4               r_draw.o (symbol from plugin)
_sightcounts        0x8               p_sight.o (symbol from plugin)
_tmxmove            0x4               p_map.o (symbol from plugin)
__pdomain           0x4               /usr/m68k-ataribrown-elf/lib/m68020/softfp/libc.a(globals.o)
__starttime         0x4               /usr/m68k-ataribrown-elf/lib/m68020/softfp/libc.a(globals.o)
_DOOM2BM_TextureTranslation
                    0x4               r_data.o (symbol from plugin)
_centeryfrac        0x4               r_main.o (symbol from plugin)
_ds_colormap        0x4               r_draw.o (symbol from plugin)
_turnheld           0x4               g_game.o (symbol from plugin)
_corpsehit          0x4               p_enemy.o (symbol from plugin)
_mobj_deletelist    0x400             p_tick.o (symbol from plugin)
_modifiedgame       0x1               doomstat.o (symbol from plugin)
_specials_e         0x4               p_saveg.o (symbol from plugin)
_vsprsortedhead     0x3c              r_things.o (symbol from plugin)
_mapdir             0x400             d_main.o (symbol from plugin)
_ylookup            0xd00             r_draw.o (symbol from plugin)
_skytexture         0x4               r_sky.o (symbol from plugin)
_dscount            0x4               r_draw.o (symbol from plugin)
_starttime          0x4               g_game.o (symbol from plugin)
_numpatches         0x4               r_data.o (symbol from plugin)
__rootdir           0x1               /usr/m68k-ataribrown-elf/lib/m68020/softfp/libc.a(globals.o)
_chat_char          0x1               hu_stuff.o (symbol from plugin)
_dclicktime2        0x4               g_game.o (symbol from plugin)
_dclicks            0x4               g_game.o (symbol from plugin)
_resendto           0x20              d_net.o (symbol from plugin)
_strace             0x10              p_sight.o (symbol from plugin)
_bombsource         0x4               p_map.o (symbol from plugin)
_save_p             0x4               p_saveg.o (symbol from plugin)
_secondslidefrac    0x4               p_map.o (symbol from plugin)
_bombdamage         0x4               p_map.o (symbol from plugin)
_options_e          0x4               m_menu.o (symbol from plugin)
_translationtables  0x4               r_draw.o (symbol from plugin)
_losbbox            0x10              p_sight.o (symbol from plugin)
__initial_stack     0x4               /usr/m68k-ataribrown-elf/lib/m68020/softfp/libc.a(inistack.o)
_nofit              0x1               p_map.o (symbol from plugin)
_texturecolumnofs   0x4               r_data.o (symbol from plugin)
_nodes              0x4               /tmp/ccWJ2D8E.ltrans2.ltrans.o
_maxsend            0x4               d_net.o (symbol from plugin)
_ds_y               0x4               r_draw.o (symbol from plugin)
_sound_e            0x4               m_menu.o (symbol from plugin)
_basedefault        0x400             d_main.o (symbol from plugin)
_keybuf             0x100             /tmp/ccWJ2D8E.ltrans25.ltrans.o
_tmymove            0x4               p_map.o (symbol from plugin)
__sigmask           0x4               /usr/m68k-ataribrown-elf/lib/m68020/softfp/libc.a(initsig.o)
___fonts            0x4               /usr/m68k-ataribrown-elf/lib/m68020/softfp/libc.a(alglobal.o)
_dc_colormap        0x4               r_draw.o (symbol from plugin)
_translations       0x300             r_draw.o (symbol from plugin)
_subsectors         0x4               /tmp/ccWJ2D8E.ltrans2.ltrans.o
_texturecolumnlump  0x4               r_data.o (symbol from plugin)
_messx              0x4               m_menu.o (symbol from plugin)
_dc_iscale          0x4               r_draw.o (symbol from plugin)
_xtoviewangle       0x504             r_main.o (symbol from plugin)
_transcolfunc       0x4               r_main.o (symbol from plugin)
__PgmSize           0x4               /usr/m68k-ataribrown-elf/lib/m68020/softfp/libc.a(globals.o)
_firstspritelump    0x4               /tmp/ccWJ2D8E.ltrans8.ltrans.o
_centerx            0x4               r_main.o (symbol from plugin)
_bombspot           0x4               p_map.o (symbol from plugin)
_sectors            0x4               /tmp/ccWJ2D8E.ltrans15.ltrans.o
_clipangle          0x4               r_main.o (symbol from plugin)
_texturecomposite   0x4               r_data.o (symbol from plugin)
__at_exit           0x4               /usr/m68k-ataribrown-elf/lib/m68020/softfp/libc.a(globals.o)
_endstring          0xa0              m_menu.o (symbol from plugin)
_lastnettic         0x4               d_net.o (symbol from plugin)
___Ident_gem        0x1               /usr/m68k-ataribrown-elf/lib/m68020/softfp/libc.a(ident_dummy_gem.o)
_viewcos            0x4               r_main.o (symbol from plugin)
_lastpatch          0x4               r_data.o (symbol from plugin)
_dc_source          0x4               r_draw.o (symbol from plugin)
_ds_xstep           0x4               r_draw.o (symbol from plugin)
_segs               0x4               p_setup.o (symbol from plugin)
__exit_dummy_decl   0x4               /usr/m68k-ataribrown-elf/lib/m68020/softfp/libc.a(globals.o)
_frameon            0x4               d_net.o (symbol from plugin)
_piscacheheight     0x2               p_setup.o (symbol from plugin)
_vileobj            0x4               p_enemy.o (symbol from plugin)
_firstpatch         0x4               r_data.o (symbol from plugin)
_noblit             0x1               g_game.o (symbol from plugin)
_messy              0x4               m_menu.o (symbol from plugin)
___funcs            0x4               /usr/m68k-ataribrown-elf/lib/m68020/softfp/libc.a(alglobal.o)
_chgunorg           0x18              p_pspr.o (symbol from plugin)
_exitmsg            0x50              d_net.o (symbol from plugin)
_read_e             0x4               m_menu.o (symbol from plugin)
__base              0x4               /usr/m68k-ataribrown-elf/lib/m68020/softfp/libc.a(globals.o)
_remove_channels    0x98              i_sound_atari.o (symbol from plugin)
_flatmemory         0x4               r_data.o (symbol from plugin)
_texturememory      0x4               r_data.o (symbol from plugin)
_tempstring         0x50              m_menu.o (symbol from plugin)
_dccount            0x4               r_draw.o (symbol from plugin)
_emptycmd           0xa               i_system.o (symbol from plugin)
_levelstarttic      0x4               g_game.o (symbol from plugin)
_basecolfunc        0x4               r_main.o (symbol from plugin)
_vissprites         0x1e00            r_things.o (symbol from plugin)
_viewplayer         0x4               r_main.o (symbol from plugin)
_epi                0x4               m_menu.o (symbol from plugin)
_errno              0x4               /usr/m68k-ataribrown-elf/lib/m68020/softfp/libc.a(globals.o)
_viewimage          0x4               r_draw.o (symbol from plugin)
_numsides           0x4               p_setup.o (symbol from plugin)
_ds_xfrac           0x4               r_draw.o (symbol from plugin)
_braintargets       0x80              p_enemy.o (symbol from plugin)
_dclickstate        0x4               g_game.o (symbol from plugin)
_t2y                0x4               p_sight.o (symbol from plugin)
_texturecompositesize
                    0x4               r_data.o (symbol from plugin)
_viewangletox       0x4000            r_main.o (symbol from plugin)
_viewsin            0x4               r_main.o (symbol from plugin)
_sightzstart        0x4               p_sight.o (symbol from plugin)
_viewyangle         0x4               r_main.o (symbol from plugin)
_colfunc            0x4               r_main.o (symbol from plugin)
_ysbar              0x2               i_video_atari.o (symbol from plugin)
_viletryx           0x4               p_enemy.o (symbol from plugin)
_mfloorclip         0x4               r_things.o (symbol from plugin)
__childtime         0x4               /usr/m68k-ataribrown-elf/lib/m68020/softfp/libc.a(globals.o)
_onground           0x1               p_user.o (symbol from plugin)
_episodes_e         0x4               m_menu.o (symbol from plugin)
_resendcount        0x20              d_net.o (symbol from plugin)
_numbraintargets    0x4               p_enemy.o (symbol from plugin)
_spritememory       0x4               r_data.o (symbol from plugin)
_frameskip          0x10              d_net.o (symbol from plugin)
_numnodes           0x4               /tmp/ccWJ2D8E.ltrans2.ltrans.o
__sigpending        0x4               /usr/m68k-ataribrown-elf/lib/m68020/softfp/libc.a(initsig.o)
_numsegs            0x4               p_setup.o (symbol from plugin)
_dclickstate2       0x4               g_game.o (symbol from plugin)
_texturetranslation
                    0x4               r_data.o (symbol from plugin)

Discarded input sections

 .data          0x00000000        0x0 /usr/m68k-ataribrown-elf/lib/crt0.o
 .bss           0x00000000        0x0 /usr/m68k-ataribrown-elf/lib/crt0.o
 .text          0x00000000        0x0 mStartup.o (symbol from plugin)
 .text          0x00000000        0x0 /tmp/ccWJ2D8E.ltrans0.ltrans.o
 .data          0x00000000        0x0 /tmp/ccWJ2D8E.ltrans0.ltrans.o
 .bss           0x00000000        0x0 /tmp/ccWJ2D8E.ltrans0.ltrans.o
 .text          0x00000000        0x0 /tmp/ccWJ2D8E.ltrans1.ltrans.o
 .data          0x00000000        0x0 /tmp/ccWJ2D8E.ltrans1.ltrans.o
 .bss           0x00000000        0x0 /tmp/ccWJ2D8E.ltrans1.ltrans.o
 .text          0x00000000        0x0 /tmp/ccWJ2D8E.ltrans2.ltrans.o
 .data          0x00000000        0x0 /tmp/ccWJ2D8E.ltrans2.ltrans.o
 .bss           0x00000000        0x0 /tmp/ccWJ2D8E.ltrans2.ltrans.o
 .text          0x00000000        0x0 /tmp/ccWJ2D8E.ltrans3.ltrans.o
 .data          0x00000000        0x0 /tmp/ccWJ2D8E.ltrans3.ltrans.o
 .bss           0x00000000        0x0 /tmp/ccWJ2D8E.ltrans3.ltrans.o
 .text          0x00000000        0x0 /tmp/ccWJ2D8E.ltrans4.ltrans.o
 .data          0x00000000        0x0 /tmp/ccWJ2D8E.ltrans4.ltrans.o
 .bss           0x00000000        0x0 /tmp/ccWJ2D8E.ltrans4.ltrans.o
 .bss.vp_back   0x00000000        0x4 /tmp/ccWJ2D8E.ltrans4.ltrans.o
 .text          0x00000000        0x0 /tmp/ccWJ2D8E.ltrans5.ltrans.o
 .data          0x00000000        0x0 /tmp/ccWJ2D8E.ltrans5.ltrans.o
 .bss           0x00000000        0x0 /tmp/ccWJ2D8E.ltrans5.ltrans.o
 .text          0x00000000        0x0 /tmp/ccWJ2D8E.ltrans6.ltrans.o
 .data          0x00000000        0x0 /tmp/ccWJ2D8E.ltrans6.ltrans.o
 .bss           0x00000000        0x0 /tmp/ccWJ2D8E.ltrans6.ltrans.o
 .text          0x00000000        0x0 /tmp/ccWJ2D8E.ltrans7.ltrans.o
 .data          0x00000000        0x0 /tmp/ccWJ2D8E.ltrans7.ltrans.o
 .bss           0x00000000        0x0 /tmp/ccWJ2D8E.ltrans7.ltrans.o
 .text          0x00000000        0x0 /tmp/ccWJ2D8E.ltrans8.ltrans.o
 .data          0x00000000        0x0 /tmp/ccWJ2D8E.ltrans8.ltrans.o
 .bss           0x00000000        0x0 /tmp/ccWJ2D8E.ltrans8.ltrans.o
 .text          0x00000000        0x0 /tmp/ccWJ2D8E.ltrans9.ltrans.o
 .data          0x00000000        0x0 /tmp/ccWJ2D8E.ltrans9.ltrans.o
 .bss           0x00000000        0x0 /tmp/ccWJ2D8E.ltrans9.ltrans.o
 .text          0x00000000        0x0 /tmp/ccWJ2D8E.ltrans10.ltrans.o
 .data          0x00000000        0x0 /tmp/ccWJ2D8E.ltrans10.ltrans.o
 .bss           0x00000000        0x0 /tmp/ccWJ2D8E.ltrans10.ltrans.o
 .text          0x00000000        0x0 /tmp/ccWJ2D8E.ltrans11.ltrans.o
 .data          0x00000000        0x0 /tmp/ccWJ2D8E.ltrans11.ltrans.o
 .bss           0x00000000        0x0 /tmp/ccWJ2D8E.ltrans11.ltrans.o
 .text          0x00000000        0x0 /tmp/ccWJ2D8E.ltrans12.ltrans.o
 .data          0x00000000        0x0 /tmp/ccWJ2D8E.ltrans12.ltrans.o
 .bss           0x00000000        0x0 /tmp/ccWJ2D8E.ltrans12.ltrans.o
 .text          0x00000000        0x0 /tmp/ccWJ2D8E.ltrans13.ltrans.o
 .data          0x00000000        0x0 /tmp/ccWJ2D8E.ltrans13.ltrans.o
 .bss           0x00000000        0x0 /tmp/ccWJ2D8E.ltrans13.ltrans.o
 .text.vsnprintf
                0x00000000       0x2c /tmp/ccWJ2D8E.ltrans13.ltrans.o
 .text          0x00000000        0x0 /tmp/ccWJ2D8E.ltrans14.ltrans.o
 .data          0x00000000        0x0 /tmp/ccWJ2D8E.ltrans14.ltrans.o
 .bss           0x00000000        0x0 /tmp/ccWJ2D8E.ltrans14.ltrans.o
 .text.R_DrawSpanLow
                0x00000000        0x2 /tmp/ccWJ2D8E.ltrans14.ltrans.o
 .text.R_DrawSpan
                0x00000000        0x2 /tmp/ccWJ2D8E.ltrans14.ltrans.o
 .text.R_DrawTranslatedColumn
                0x00000000        0x2 /tmp/ccWJ2D8E.ltrans14.ltrans.o
 .text.R_DrawFuzzColumn
                0x00000000        0x2 /tmp/ccWJ2D8E.ltrans14.ltrans.o
 .text.R_DrawColumn
                0x00000000        0x6 /tmp/ccWJ2D8E.ltrans14.ltrans.o
 .text.I_Init   0x00000000        0x2 /tmp/ccWJ2D8E.ltrans14.ltrans.o
 .text          0x00000000        0x0 /tmp/ccWJ2D8E.ltrans15.ltrans.o
 .data          0x00000000        0x0 /tmp/ccWJ2D8E.ltrans15.ltrans.o
 .bss           0x00000000        0x0 /tmp/ccWJ2D8E.ltrans15.ltrans.o
 .text.assign_bmm_channel2.constprop.41
                0x00000000      0x1d2 /tmp/ccWJ2D8E.ltrans15.ltrans.o
 .bss.bmm_volume
                0x00000000        0x2 /tmp/ccWJ2D8E.ltrans15.ltrans.o
 .text          0x00000000        0x0 /tmp/ccWJ2D8E.ltrans16.ltrans.o
 .data          0x00000000        0x0 /tmp/ccWJ2D8E.ltrans16.ltrans.o
 .bss           0x00000000        0x0 /tmp/ccWJ2D8E.ltrans16.ltrans.o
 .text          0x00000000        0x0 /tmp/ccWJ2D8E.ltrans17.ltrans.o
 .data          0x00000000        0x0 /tmp/ccWJ2D8E.ltrans17.ltrans.o
 .bss           0x00000000        0x0 /tmp/ccWJ2D8E.ltrans17.ltrans.o
 .text          0x00000000        0x0 /tmp/ccWJ2D8E.ltrans18.ltrans.o
 .data          0x00000000        0x0 /tmp/ccWJ2D8E.ltrans18.ltrans.o
 .bss           0x00000000        0x0 /tmp/ccWJ2D8E.ltrans18.ltrans.o
 .rodata.viewangleoffset
                0x00000000        0x4 /tmp/ccWJ2D8E.ltrans18.ltrans.o
 .bss.lastautomapactive.4815.lto_priv.244
                0x00000000        0x1 /tmp/ccWJ2D8E.ltrans18.ltrans.o
 .rodata.finecosine
                0x00000000        0x4 /tmp/ccWJ2D8E.ltrans18.ltrans.o
 .text          0x00000000        0x0 /tmp/ccWJ2D8E.ltrans19.ltrans.o
 .data          0x00000000        0x0 /tmp/ccWJ2D8E.ltrans19.ltrans.o
 .bss           0x00000000        0x0 /tmp/ccWJ2D8E.ltrans19.ltrans.o
 .bss.st_chat.lto_priv.194
                0x00000000        0x1 /tmp/ccWJ2D8E.ltrans19.ltrans.o
 .text          0x00000000        0x0 /tmp/ccWJ2D8E.ltrans20.ltrans.o
 .data          0x00000000        0x0 /tmp/ccWJ2D8E.ltrans20.ltrans.o
 .bss           0x00000000        0x0 /tmp/ccWJ2D8E.ltrans20.ltrans.o
 .text          0x00000000        0x0 /tmp/ccWJ2D8E.ltrans21.ltrans.o
 .data          0x00000000        0x0 /tmp/ccWJ2D8E.ltrans21.ltrans.o
 .bss           0x00000000        0x0 /tmp/ccWJ2D8E.ltrans21.ltrans.o
 .text          0x00000000        0x0 /tmp/ccWJ2D8E.ltrans22.ltrans.o
 .data          0x00000000        0x0 /tmp/ccWJ2D8E.ltrans22.ltrans.o
 .bss           0x00000000        0x0 /tmp/ccWJ2D8E.ltrans22.ltrans.o
 .text          0x00000000        0x0 /tmp/ccWJ2D8E.ltrans23.ltrans.o
 .data          0x00000000        0x0 /tmp/ccWJ2D8E.ltrans23.ltrans.o
 .bss           0x00000000        0x0 /tmp/ccWJ2D8E.ltrans23.ltrans.o
 .bss.st_gamestate.lto_priv.149
                0x00000000        0x4 /tmp/ccWJ2D8E.ltrans23.ltrans.o
 .text          0x00000000        0x0 /tmp/ccWJ2D8E.ltrans24.ltrans.o
 .data          0x00000000        0x0 /tmp/ccWJ2D8E.ltrans24.ltrans.o
 .bss           0x00000000        0x0 /tmp/ccWJ2D8E.ltrans24.ltrans.o
 .text          0x00000000        0x0 /tmp/ccWJ2D8E.ltrans25.ltrans.o
 .data          0x00000000        0x0 /tmp/ccWJ2D8E.ltrans25.ltrans.o
 .bss           0x00000000        0x0 /tmp/ccWJ2D8E.ltrans25.ltrans.o
 .text          0x00000000        0x0 /tmp/ccWJ2D8E.ltrans26.ltrans.o
 .data          0x00000000        0x0 /tmp/ccWJ2D8E.ltrans26.ltrans.o
 .bss           0x00000000        0x0 /tmp/ccWJ2D8E.ltrans26.ltrans.o
 .text          0x00000000        0x0 /tmp/ccWJ2D8E.ltrans27.ltrans.o
 .data          0x00000000        0x0 /tmp/ccWJ2D8E.ltrans27.ltrans.o
 .bss           0x00000000        0x0 /tmp/ccWJ2D8E.ltrans27.ltrans.o
 .text          0x00000000        0x0 /tmp/ccWJ2D8E.ltrans28.ltrans.o
 .data          0x00000000        0x0 /tmp/ccWJ2D8E.ltrans28.ltrans.o
 .bss           0x00000000        0x0 /tmp/ccWJ2D8E.ltrans28.ltrans.o
 .text.I_PauseSong.constprop.85
                0x00000000        0x2 /tmp/ccWJ2D8E.ltrans28.ltrans.o
 .bss.current_song
                0x00000000        0x2 /tmp/ccWJ2D8E.ltrans28.ltrans.o
 .text          0x00000000        0x0 /tmp/ccWJ2D8E.ltrans29.ltrans.o
 .data          0x00000000        0x0 /tmp/ccWJ2D8E.ltrans29.ltrans.o
 .bss           0x00000000        0x0 /tmp/ccWJ2D8E.ltrans29.ltrans.o
 .text          0x00000000        0x0 /tmp/ccWJ2D8E.ltrans30.ltrans.o
 .data          0x00000000        0x0 /tmp/ccWJ2D8E.ltrans30.ltrans.o
 .bss           0x00000000        0x0 /tmp/ccWJ2D8E.ltrans30.ltrans.o
 .rodata.joybuttons
                0x00000000        0x4 /tmp/ccWJ2D8E.ltrans30.ltrans.o
 .rodata.mousebuttons
                0x00000000        0x4 /tmp/ccWJ2D8E.ltrans30.ltrans.o
 .text          0x00000000        0x0 /tmp/ccWJ2D8E.ltrans31.ltrans.o
 .data          0x00000000        0x0 /tmp/ccWJ2D8E.ltrans31.ltrans.o
 .bss           0x00000000        0x0 /tmp/ccWJ2D8E.ltrans31.ltrans.o
 .text          0x00000000        0x0 os.o (symbol from plugin)
 .text          0x00000000        0x0 memcpy.o (symbol from plugin)
 .text          0x00000000        0x0 vsnprint.o (symbol from plugin)
 .text          0x00000000        0x0 inih/ini.o (symbol from plugin)
 .text          0x00000000        0x0 quantize.o (symbol from plugin)
 .text          0x00000000        0x0 doomdef.o (symbol from plugin)
 .text          0x00000000        0x0 doomstat.o (symbol from plugin)
 .text          0x00000000        0x0 dstrings.o (symbol from plugin)
 .text          0x00000000        0x0 d_net.o (symbol from plugin)
 .text          0x00000000        0x0 i_system.o (symbol from plugin)
 .text          0x00000000        0x0 i_sound_atari.o (symbol from plugin)
 .text          0x00000000        0x0 i_music_atari.o (symbol from plugin)
 .text          0x00000000        0x0 i_video_atari.o (symbol from plugin)
 .text          0x00000000        0x0 i_input_atari.o (symbol from plugin)
 .text          0x00000000        0x0 i_net.o (symbol from plugin)
 .text          0x00000000        0x0 tables.o (symbol from plugin)
 .text          0x00000000        0x0 f_finale.o (symbol from plugin)
 .text          0x00000000        0x0 f_wipe.o (symbol from plugin)
 .text          0x00000000        0x0 d_main.o (symbol from plugin)
 .text          0x00000000        0x0 d_items.o (symbol from plugin)
 .text          0x00000000        0x0 g_game.o (symbol from plugin)
 .text          0x00000000        0x0 m_menu.o (symbol from plugin)
 .text          0x00000000        0x0 m_misc.o (symbol from plugin)
 .text          0x00000000        0x0 m_argv.o (symbol from plugin)
 .text          0x00000000        0x0 m_bbox.o (symbol from plugin)
 .text          0x00000000        0x0 m_fixed.o (symbol from plugin)
 .text          0x00000000        0x0 m_swap.o (symbol from plugin)
 .text          0x00000000        0x0 m_cheat.o (symbol from plugin)
 .text          0x00000000        0x0 m_random.o (symbol from plugin)
 .text          0x00000000        0x0 am_map.o (symbol from plugin)
 .text          0x00000000        0x0 p_ceilng.o (symbol from plugin)
 .text          0x00000000        0x0 p_doors.o (symbol from plugin)
 .text          0x00000000        0x0 p_enemy.o (symbol from plugin)
 .text          0x00000000        0x0 p_floor.o (symbol from plugin)
 .text          0x00000000        0x0 p_inter.o (symbol from plugin)
 .text          0x00000000        0x0 p_lights.o (symbol from plugin)
 .text          0x00000000        0x0 p_map.o (symbol from plugin)
 .text          0x00000000        0x0 p_maputl.o (symbol from plugin)
 .text          0x00000000        0x0 p_plats.o (symbol from plugin)
 .text          0x00000000        0x0 p_pspr.o (symbol from plugin)
 .text          0x00000000        0x0 p_setup.o (symbol from plugin)
 .text          0x00000000        0x0 p_sight.o (symbol from plugin)
 .text          0x00000000        0x0 p_spec.o (symbol from plugin)
 .text          0x00000000        0x0 p_switch.o (symbol from plugin)
 .text          0x00000000        0x0 p_mobj.o (symbol from plugin)
 .text          0x00000000        0x0 p_telept.o (symbol from plugin)
 .text          0x00000000        0x0 p_tick.o (symbol from plugin)
 .text          0x00000000        0x0 p_saveg.o (symbol from plugin)
 .text          0x00000000        0x0 p_user.o (symbol from plugin)
 .text          0x00000000        0x0 r_bsp.o (symbol from plugin)
 .text          0x00000000        0x0 r_data.o (symbol from plugin)
 .text          0x00000000        0x0 r_draw.o (symbol from plugin)
 .text          0x00000000        0x0 r_main.o (symbol from plugin)
 .text          0x00000000        0x0 r_plane.o (symbol from plugin)
 .text          0x00000000        0x0 r_segs.o (symbol from plugin)
 .text          0x00000000        0x0 r_sky.o (symbol from plugin)
 .text          0x00000000        0x0 r_things.o (symbol from plugin)
 .text          0x00000000        0x0 w_wad.o (symbol from plugin)
 .text          0x00000000        0x0 wi_stuff.o (symbol from plugin)
 .text          0x00000000        0x0 v_video.o (symbol from plugin)
 .text          0x00000000        0x0 st_lib.o (symbol from plugin)
 .text          0x00000000        0x0 st_stuff.o (symbol from plugin)
 .text          0x00000000        0x0 hu_stuff.o (symbol from plugin)
 .text          0x00000000        0x0 hu_lib.o (symbol from plugin)
 .text          0x00000000        0x0 s_sound.o (symbol from plugin)
 .text          0x00000000        0x0 z_zone.o (symbol from plugin)
 .text          0x00000000        0x0 info.o (symbol from plugin)
 .text          0x00000000        0x0 sounds.o (symbol from plugin)
 .text          0x00000000        0x0 i_main.o (symbol from plugin)
 .data          0x00000000        0x0 /usr/m68k-ataribrown-elf/lib/m68020/softfp/libc.a(checkcpu.o)
 .bss           0x00000000        0x0 /usr/m68k-ataribrown-elf/lib/m68020/softfp/libc.a(checkcpu.o)
 .bss           0x00000000        0x0 /usr/m68k-ataribrown-elf/lib/m68020/softfp/libc.a(crtinit.o)
 .text          0x00000000      0x17c /usr/m68k-ataribrown-elf/lib/m68020/softfp/libc.a(ctype.o)
 .bss           0x00000000        0x0 /usr/m68k-ataribrown-elf/lib/m68020/softfp/libc.a(ctype.o)
 .data          0x00000000        0x0 /usr/m68k-ataribrown-elf/lib/m68020/softfp/libc.a(getenv.o)
 .bss           0x00000000        0x0 /usr/m68k-ataribrown-elf/lib/m68020/softfp/libc.a(getenv.o)
 .text          0x00000000        0x0 /usr/m68k-ataribrown-elf/lib/m68020/softfp/libc.a(globals.o)
 .text          0x00000000        0x0 /usr/m68k-ataribrown-elf/lib/m68020/softfp/libc.a(heapbase.o)
 .data          0x00000000        0x0 /usr/m68k-ataribrown-elf/lib/m68020/softfp/libc.a(heapbase.o)
 .text          0x00000000        0x0 /usr/m68k-ataribrown-elf/lib/m68020/softfp/libc.a(ident.o)
 .data          0x00000000       0x1b /usr/m68k-ataribrown-elf/lib/m68020/softfp/libc.a(ident.o)
 .bss           0x00000000        0x0 /usr/m68k-ataribrown-elf/lib/m68020/softfp/libc.a(ident.o)
 .comment       0x00000000       0x12 /usr/m68k-ataribrown-elf/lib/m68020/softfp/libc.a(ident.o)
 .text          0x00000000        0x0 /usr/m68k-ataribrown-elf/lib/m68020/softfp/libc.a(ident_dummy_gem.o)
 .data          0x00000000        0x0 /usr/m68k-ataribrown-elf/lib/m68020/softfp/libc.a(ident_dummy_gem.o)
 .bss           0x00000000        0x0 /usr/m68k-ataribrown-elf/lib/m68020/softfp/libc.a(ident_dummy_gem.o)
 .comment       0x00000000       0x12 /usr/m68k-ataribrown-elf/lib/m68020/softfp/libc.a(ident_dummy_gem.o)
 COMMON         0x00000000        0x1 /usr/m68k-ataribrown-elf/lib/m68020/softfp/libc.a(ident_dummy_gem.o)
 .text          0x00000000        0x0 /usr/m68k-ataribrown-elf/lib/m68020/softfp/libc.a(inistack.o)
 .data          0x00000000        0x0 /usr/m68k-ataribrown-elf/lib/m68020/softfp/libc.a(inistack.o)
 .bss           0x00000000        0x0 /usr/m68k-ataribrown-elf/lib/m68020/softfp/libc.a(inistack.o)
 .data          0x00000000        0x0 /usr/m68k-ataribrown-elf/lib/m68020/softfp/libc.a(main.o)
 .bss           0x00000000        0x0 /usr/m68k-ataribrown-elf/lib/m68020/softfp/libc.a(main.o)
 .data          0x00000000        0x0 /usr/m68k-ataribrown-elf/lib/m68020/softfp/libc.a(realloc.o)
 .bss           0x00000000        0x0 /usr/m68k-ataribrown-elf/lib/m68020/softfp/libc.a(realloc.o)
 .data          0x00000000        0x0 /usr/m68k-ataribrown-elf/lib/m68020/softfp/libc.a(setstack.o)
 .bss           0x00000000        0x0 /usr/m68k-ataribrown-elf/lib/m68020/softfp/libc.a(setstack.o)
 .text          0x00000000        0x0 /usr/m68k-ataribrown-elf/lib/m68020/softfp/libc.a(stksiz.o)
 .bss           0x00000000        0x0 /usr/m68k-ataribrown-elf/lib/m68020/softfp/libc.a(stksiz.o)
 .data          0x00000000        0x0 /usr/m68k-ataribrown-elf/lib/m68020/softfp/libc.a(unx2dos.o)
 .bss           0x00000000        0x0 /usr/m68k-ataribrown-elf/lib/m68020/softfp/libc.a(unx2dos.o)
 .data          0x00000000        0x0 /usr/m68k-ataribrown-elf/lib/m68020/softfp/libc.a(initsig.o)
 .bss           0x00000000        0x0 /usr/m68k-ataribrown-elf/lib/m68020/softfp/libc.a(initsig.o)
 .data          0x00000000        0x0 /usr/m68k-ataribrown-elf/lib/m68020/softfp/libc.a(binmode.o)
 .bss           0x00000000        0x0 /usr/m68k-ataribrown-elf/lib/m68020/softfp/libc.a(binmode.o)
 .text          0x00000000        0x0 /usr/m68k-ataribrown-elf/lib/m68020/softfp/libc.a(defmode.o)
 .data          0x00000000        0x0 /usr/m68k-ataribrown-elf/lib/m68020/softfp/libc.a(defmode.o)
 .data          0x00000000        0x0 /usr/m68k-ataribrown-elf/lib/m68020/softfp/libc.a(fclose.o)
 .bss           0x00000000        0x0 /usr/m68k-ataribrown-elf/lib/m68020/softfp/libc.a(fclose.o)
 .data          0x00000000        0x0 /usr/m68k-ataribrown-elf/lib/m68020/softfp/libc.a(fflush.o)
 .bss           0x00000000        0x0 /usr/m68k-ataribrown-elf/lib/m68020/softfp/libc.a(fflush.o)
 .data          0x00000000        0x0 /usr/m68k-ataribrown-elf/lib/m68020/softfp/libc.a(fgets.o)
 .bss           0x00000000        0x0 /usr/m68k-ataribrown-elf/lib/m68020/softfp/libc.a(fgets.o)
 .data          0x00000000        0x0 /usr/m68k-ataribrown-elf/lib/m68020/softfp/libc.a(fileno.o)
 .bss           0x00000000        0x0 /usr/m68k-ataribrown-elf/lib/m68020/softfp/libc.a(fileno.o)
 .data          0x00000000        0x0 /usr/m68k-ataribrown-elf/lib/m68020/softfp/libc.a(fopen.o)
 .bss           0x00000000        0x0 /usr/m68k-ataribrown-elf/lib/m68020/softfp/libc.a(fopen.o)
 .data          0x00000000        0x0 /usr/m68k-ataribrown-elf/lib/m68020/softfp/libc.a(fread.o)
 .bss           0x00000000        0x0 /usr/m68k-ataribrown-elf/lib/m68020/softfp/libc.a(fread.o)
 .data          0x00000000        0x0 /usr/m68k-ataribrown-elf/lib/m68020/softfp/libc.a(fseek.o)
 .bss           0x00000000        0x0 /usr/m68k-ataribrown-elf/lib/m68020/softfp/libc.a(fseek.o)
 .data          0x00000000        0x0 /usr/m68k-ataribrown-elf/lib/m68020/softfp/libc.a(ftell.o)
 .bss           0x00000000        0x0 /usr/m68k-ataribrown-elf/lib/m68020/softfp/libc.a(ftell.o)
 .data          0x00000000        0x0 /usr/m68k-ataribrown-elf/lib/m68020/softfp/libc.a(getchar.o)
 .bss           0x00000000        0x0 /usr/m68k-ataribrown-elf/lib/m68020/softfp/libc.a(getchar.o)
 .data          0x00000000        0x0 /usr/m68k-ataribrown-elf/lib/m68020/softfp/libc.a(internals.o)
 .bss           0x00000000        0x0 /usr/m68k-ataribrown-elf/lib/m68020/softfp/libc.a(internals.o)
 .data          0x00000000        0x0 /usr/m68k-ataribrown-elf/lib/m68020/softfp/libc.a(newstream.o)
 .bss           0x00000000        0x0 /usr/m68k-ataribrown-elf/lib/m68020/softfp/libc.a(newstream.o)
 .data          0x00000000        0x0 /usr/m68k-ataribrown-elf/lib/m68020/softfp/libc.a(setbuf.o)
 .bss           0x00000000        0x0 /usr/m68k-ataribrown-elf/lib/m68020/softfp/libc.a(setbuf.o)
 .data          0x00000000        0x0 /usr/m68k-ataribrown-elf/lib/m68020/softfp/libc.a(setvbuf.o)
 .bss           0x00000000        0x0 /usr/m68k-ataribrown-elf/lib/m68020/softfp/libc.a(setvbuf.o)
 .data          0x00000000        0x0 /usr/m68k-ataribrown-elf/lib/m68020/softfp/libc.a(stdio_init.o)
 .bss           0x00000000        0x0 /usr/m68k-ataribrown-elf/lib/m68020/softfp/libc.a(stdio_init.o)
 .data          0x00000000        0x0 /usr/m68k-ataribrown-elf/lib/m68020/softfp/libc.a(sysd-stdio.o)
 .bss           0x00000000        0x0 /usr/m68k-ataribrown-elf/lib/m68020/softfp/libc.a(sysd-stdio.o)
 .data          0x00000000        0x0 /usr/m68k-ataribrown-elf/lib/m68020/softfp/libc.a(atoi.o)
 .bss           0x00000000        0x0 /usr/m68k-ataribrown-elf/lib/m68020/softfp/libc.a(atoi.o)
 .data          0x00000000        0x0 /usr/m68k-ataribrown-elf/lib/m68020/softfp/libc.a(exit.o)
 .bss           0x00000000        0x0 /usr/m68k-ataribrown-elf/lib/m68020/softfp/libc.a(exit.o)
 .data          0x00000000        0x0 /usr/m68k-ataribrown-elf/lib/m68020/softfp/libc.a(strtol.o)
 .bss           0x00000000        0x0 /usr/m68k-ataribrown-elf/lib/m68020/softfp/libc.a(strtol.o)
 .data          0x00000000        0x0 /usr/m68k-ataribrown-elf/lib/m68020/softfp/libc.a(bcopy.o)
 .bss           0x00000000        0x0 /usr/m68k-ataribrown-elf/lib/m68020/softfp/libc.a(bcopy.o)
 .data          0x00000000        0x0 /usr/m68k-ataribrown-elf/lib/m68020/softfp/libc.a(bzero.o)
 .bss           0x00000000        0x0 /usr/m68k-ataribrown-elf/lib/m68020/softfp/libc.a(bzero.o)
 .data          0x00000000        0x0 /usr/m68k-ataribrown-elf/lib/m68020/softfp/libc.a(memccpy.o)
 .bss           0x00000000        0x0 /usr/m68k-ataribrown-elf/lib/m68020/softfp/libc.a(memccpy.o)
 .data          0x00000000        0x0 /usr/m68k-ataribrown-elf/lib/m68020/softfp/libc.a(memset.o)
 .bss           0x00000000        0x0 /usr/m68k-ataribrown-elf/lib/m68020/softfp/libc.a(memset.o)
 .data          0x00000000        0x0 /usr/m68k-ataribrown-elf/lib/m68020/softfp/libc.a(strcmp.o)
 .bss           0x00000000        0x0 /usr/m68k-ataribrown-elf/lib/m68020/softfp/libc.a(strcmp.o)
 .data          0x00000000        0x0 /usr/m68k-ataribrown-elf/lib/m68020/softfp/libc.a(strlen.o)
 .bss           0x00000000        0x0 /usr/m68k-ataribrown-elf/lib/m68020/softfp/libc.a(strlen.o)
 .data          0x00000000        0x0 /usr/m68k-ataribrown-elf/lib/m68020/softfp/libc.a(strncat.o)
 .bss           0x00000000        0x0 /usr/m68k-ataribrown-elf/lib/m68020/softfp/libc.a(strncat.o)
 .data          0x00000000        0x0 /usr/m68k-ataribrown-elf/lib/m68020/softfp/libc.a(strncmp.o)
 .bss           0x00000000        0x0 /usr/m68k-ataribrown-elf/lib/m68020/softfp/libc.a(strncmp.o)
 .data          0x00000000        0x0 /usr/m68k-ataribrown-elf/lib/m68020/softfp/libc.a(strncpy.o)
 .bss           0x00000000        0x0 /usr/m68k-ataribrown-elf/lib/m68020/softfp/libc.a(strncpy.o)
 .data          0x00000000        0x0 /usr/m68k-ataribrown-elf/lib/m68020/softfp/libc.a(strrchr.o)
 .bss           0x00000000        0x0 /usr/m68k-ataribrown-elf/lib/m68020/softfp/libc.a(strrchr.o)
 .data          0x00000000        0x0 /usr/m68k-ataribrown-elf/lib/m68020/softfp/libc.a(strupr.o)
 .bss           0x00000000        0x0 /usr/m68k-ataribrown-elf/lib/m68020/softfp/libc.a(strupr.o)
 .data          0x00000000        0x0 /usr/m68k-ataribrown-elf/lib/m68020/softfp/libc.a(access.o)
 .bss           0x00000000        0x0 /usr/m68k-ataribrown-elf/lib/m68020/softfp/libc.a(access.o)
 .data          0x00000000        0x0 /usr/m68k-ataribrown-elf/lib/m68020/softfp/libc.a(close.o)
 .bss           0x00000000        0x0 /usr/m68k-ataribrown-elf/lib/m68020/softfp/libc.a(close.o)
 .data          0x00000000        0x0 /usr/m68k-ataribrown-elf/lib/m68020/softfp/libc.a(dup2.o)
 .bss           0x00000000        0x0 /usr/m68k-ataribrown-elf/lib/m68020/softfp/libc.a(dup2.o)
 .data          0x00000000        0x0 /usr/m68k-ataribrown-elf/lib/m68020/softfp/libc.a(fstat.o)
 .bss           0x00000000        0x0 /usr/m68k-ataribrown-elf/lib/m68020/softfp/libc.a(fstat.o)
 .bss           0x00000000        0x0 /usr/m68k-ataribrown-elf/lib/m68020/softfp/libc.a(getgid.o)
 .data          0x00000000        0x0 /usr/m68k-ataribrown-elf/lib/m68020/softfp/libc.a(getgroups.o)
 .bss           0x00000000        0x0 /usr/m68k-ataribrown-elf/lib/m68020/softfp/libc.a(getgroups.o)
 .data          0x00000000        0x0 /usr/m68k-ataribrown-elf/lib/m68020/softfp/libc.a(gethostname.o)
 .bss           0x00000000        0x0 /usr/m68k-ataribrown-elf/lib/m68020/softfp/libc.a(gethostname.o)
 .data          0x00000000        0x0 /usr/m68k-ataribrown-elf/lib/m68020/softfp/libc.a(getpagesize.o)
 .bss           0x00000000        0x0 /usr/m68k-ataribrown-elf/lib/m68020/softfp/libc.a(getpagesize.o)
 .data          0x00000000        0x0 /usr/m68k-ataribrown-elf/lib/m68020/softfp/libc.a(getuid.o)
 .bss           0x00000000        0x0 /usr/m68k-ataribrown-elf/lib/m68020/softfp/libc.a(getuid.o)
 .bss           0x00000000        0x0 /usr/m68k-ataribrown-elf/lib/m68020/softfp/libc.a(ioctl.o)
 .data          0x00000000        0x0 /usr/m68k-ataribrown-elf/lib/m68020/softfp/libc.a(lseek.o)
 .bss           0x00000000        0x0 /usr/m68k-ataribrown-elf/lib/m68020/softfp/libc.a(lseek.o)
 .data          0x00000000        0x0 /usr/m68k-ataribrown-elf/lib/m68020/softfp/libc.a(mkdir.o)
 .bss           0x00000000        0x0 /usr/m68k-ataribrown-elf/lib/m68020/softfp/libc.a(mkdir.o)
 .bss           0x00000000        0x0 /usr/m68k-ataribrown-elf/lib/m68020/softfp/libc.a(open.o)
 .bss           0x00000000        0x0 /usr/m68k-ataribrown-elf/lib/m68020/softfp/libc.a(read.o)
 .data          0x00000000        0x0 /usr/m68k-ataribrown-elf/lib/m68020/softfp/libc.a(sbrk.o)
 .bss           0x00000000        0x0 /usr/m68k-ataribrown-elf/lib/m68020/softfp/libc.a(sbrk.o)
 .data          0x00000000        0x0 /usr/m68k-ataribrown-elf/lib/m68020/softfp/libc.a(stat.o)
 .bss           0x00000000        0x0 /usr/m68k-ataribrown-elf/lib/m68020/softfp/libc.a(stat.o)
 .data          0x00000000        0x0 /usr/m68k-ataribrown-elf/lib/m68020/softfp/libc.a(sysctl.o)
 .bss           0x00000000        0x0 /usr/m68k-ataribrown-elf/lib/m68020/softfp/libc.a(sysctl.o)
 .data          0x00000000        0x0 /usr/m68k-ataribrown-elf/lib/m68020/softfp/libc.a(write.o)
 .bss           0x00000000        0x0 /usr/m68k-ataribrown-elf/lib/m68020/softfp/libc.a(write.o)
 .data          0x00000000        0x0 /usr/m68k-ataribrown-elf/lib/m68020/softfp/libc.a(bind.o)
 .bss           0x00000000        0x0 /usr/m68k-ataribrown-elf/lib/m68020/softfp/libc.a(bind.o)
 .text          0x00000000        0x0 /usr/m68k-ataribrown-elf/lib/m68020/softfp/libc.a(ident_sock.o)
 .data          0x00000000       0x1d /usr/m68k-ataribrown-elf/lib/m68020/softfp/libc.a(ident_sock.o)
 .bss           0x00000000        0x0 /usr/m68k-ataribrown-elf/lib/m68020/softfp/libc.a(ident_sock.o)
 .comment       0x00000000       0x12 /usr/m68k-ataribrown-elf/lib/m68020/softfp/libc.a(ident_sock.o)
 .data          0x00000000        0x0 /usr/m68k-ataribrown-elf/lib/m68020/softfp/libc.a(inet_addr.o)
 .bss           0x00000000        0x0 /usr/m68k-ataribrown-elf/lib/m68020/softfp/libc.a(inet_addr.o)
 .data          0x00000000        0x0 /usr/m68k-ataribrown-elf/lib/m68020/softfp/libc.a(recvfrom.o)
 .bss           0x00000000        0x0 /usr/m68k-ataribrown-elf/lib/m68020/softfp/libc.a(recvfrom.o)
 .data          0x00000000        0x0 /usr/m68k-ataribrown-elf/lib/m68020/softfp/libc.a(res_comp.o)
 .bss           0x00000000        0x0 /usr/m68k-ataribrown-elf/lib/m68020/softfp/libc.a(res_comp.o)
 .data          0x00000000        0x0 /usr/m68k-ataribrown-elf/lib/m68020/softfp/libc.a(res_query.o)
 .data          0x00000000        0x0 /usr/m68k-ataribrown-elf/lib/m68020/softfp/libc.a(send.o)
 .bss           0x00000000        0x0 /usr/m68k-ataribrown-elf/lib/m68020/softfp/libc.a(send.o)
 .data          0x00000000        0x0 /usr/m68k-ataribrown-elf/lib/m68020/softfp/libc.a(sendmsg.o)
 .bss           0x00000000        0x0 /usr/m68k-ataribrown-elf/lib/m68020/softfp/libc.a(sendmsg.o)
 .data          0x00000000        0x0 /usr/m68k-ataribrown-elf/lib/m68020/softfp/libc.a(sendto.o)
 .bss           0x00000000        0x0 /usr/m68k-ataribrown-elf/lib/m68020/softfp/libc.a(sendto.o)
 .data          0x00000000        0x0 /usr/m68k-ataribrown-elf/lib/m68020/softfp/libc.a(sncpy.o)
 .bss           0x00000000        0x0 /usr/m68k-ataribrown-elf/lib/m68020/softfp/libc.a(sncpy.o)
 .data          0x00000000        0x0 /usr/m68k-ataribrown-elf/lib/m68020/softfp/libc.a(socket.o)
 .bss           0x00000000        0x0 /usr/m68k-ataribrown-elf/lib/m68020/softfp/libc.a(socket.o)
 .text          0x00000000        0x0 /usr/m68k-ataribrown-elf/lib/m68020/softfp/libc.a(sockets_global.o)
 .bss           0x00000000        0x0 /usr/m68k-ataribrown-elf/lib/m68020/softfp/libc.a(sockets_global.o)
 .text          0x00000000        0x0 /usr/m68k-ataribrown-elf/lib/m68020/softfp/libc.a(alglobal.o)
 .data          0x00000000        0x0 /usr/m68k-ataribrown-elf/lib/m68020/softfp/libc.a(alglobal.o)
 .bss           0x00000000        0x0 /usr/m68k-ataribrown-elf/lib/m68020/softfp/libc.a(alglobal.o)
 .data          0x00000000        0x0 /usr/m68k-ataribrown-elf/lib/m68020/softfp/libc.a(assert.o)
 .bss           0x00000000        0x0 /usr/m68k-ataribrown-elf/lib/m68020/softfp/libc.a(assert.o)
 .data          0x00000000        0x0 /usr/m68k-ataribrown-elf/lib/m68020/softfp/libc.a(console.o)
 .bss           0x00000000        0x0 /usr/m68k-ataribrown-elf/lib/m68020/softfp/libc.a(console.o)
 .data          0x00000000        0x0 /usr/m68k-ataribrown-elf/lib/m68020/softfp/libc.a(do_fstat.o)
 .bss           0x00000000        0x0 /usr/m68k-ataribrown-elf/lib/m68020/softfp/libc.a(do_fstat.o)
 .data          0x00000000        0x0 /usr/m68k-ataribrown-elf/lib/m68020/softfp/libc.a(do_stat.o)
 .data          0x00000000        0x0 /usr/m68k-ataribrown-elf/lib/m68020/softfp/libc.a(enoent.o)
 .bss           0x00000000        0x0 /usr/m68k-ataribrown-elf/lib/m68020/softfp/libc.a(enoent.o)
 .data          0x00000000        0x0 /usr/m68k-ataribrown-elf/lib/m68020/softfp/libc.a(getcookie.o)
 .bss           0x00000000        0x0 /usr/m68k-ataribrown-elf/lib/m68020/softfp/libc.a(getcookie.o)
 .data          0x00000000        0x0 /usr/m68k-ataribrown-elf/lib/m68020/softfp/libc.a(getsysvar.o)
 .bss           0x00000000        0x0 /usr/m68k-ataribrown-elf/lib/m68020/softfp/libc.a(getsysvar.o)
 .text          0x00000000        0x0 /usr/m68k-ataribrown-elf/lib/m68020/softfp/libc.a(inode.o)
 .bss           0x00000000        0x0 /usr/m68k-ataribrown-elf/lib/m68020/softfp/libc.a(inode.o)
 .data          0x00000000        0x0 /usr/m68k-ataribrown-elf/lib/m68020/softfp/libc.a(isatty.o)
 .bss           0x00000000        0x0 /usr/m68k-ataribrown-elf/lib/m68020/softfp/libc.a(isatty.o)
 .data          0x00000000        0x0 /usr/m68k-ataribrown-elf/lib/m68020/softfp/libc.a(isctty.o)
 .bss           0x00000000        0x0 /usr/m68k-ataribrown-elf/lib/m68020/softfp/libc.a(isctty.o)
 .data          0x00000000        0x0 /usr/m68k-ataribrown-elf/lib/m68020/softfp/libc.a(libc_exit.o)
 .bss           0x00000000        0x0 /usr/m68k-ataribrown-elf/lib/m68020/softfp/libc.a(libc_exit.o)
 .data          0x00000000        0x0 /usr/m68k-ataribrown-elf/lib/m68020/softfp/libc.a(quickstat.o)
 .bss           0x00000000        0x0 /usr/m68k-ataribrown-elf/lib/m68020/softfp/libc.a(quickstat.o)
 .data          0x00000000        0x0 /usr/m68k-ataribrown-elf/lib/m68020/softfp/libc.a(toxxx.o)
 .bss           0x00000000        0x0 /usr/m68k-ataribrown-elf/lib/m68020/softfp/libc.a(toxxx.o)
 .text          0x00000000        0x0 /usr/m68k-ataribrown-elf/lib/m68020/softfp/libc.a(uidgid.o)
 .data          0x00000000        0x0 /usr/m68k-ataribrown-elf/lib/m68020/softfp/libc.a(uidgid.o)
 .data          0x00000000        0x0 /usr/m68k-ataribrown-elf/lib/m68020/softfp/libc.a(unixtime.o)
 .bss           0x00000000        0x0 /usr/m68k-ataribrown-elf/lib/m68020/softfp/libc.a(unixtime.o)
 .data          0x00000000        0x0 /usr/m68k-ataribrown-elf/lib/m68020/softfp/libc.a(raise.o)
 .bss           0x00000000        0x0 /usr/m68k-ataribrown-elf/lib/m68020/softfp/libc.a(raise.o)
 .data          0x00000000        0x0 /usr/m68k-ataribrown-elf/lib/m68020/softfp/libc.a(getpwuid.o)
 .data          0x00000000        0x0 /usr/m68k-ataribrown-elf/lib/m68020/softfp/libc.a(getpwuid_r.o)
 .bss           0x00000000        0x0 /usr/m68k-ataribrown-elf/lib/m68020/softfp/libc.a(getpwuid_r.o)
 .data          0x00000000        0x0 /usr/m68k-ataribrown-elf/lib/m68020/softfp/libc.a(grp.o)
 .data          0x00000000        0x0 /usr/m68k-ataribrown-elf/lib/m68020/softfp/libc.a(fcloseall.o)
 .bss           0x00000000        0x0 /usr/m68k-ataribrown-elf/lib/m68020/softfp/libc.a(fcloseall.o)
 .data          0x00000000        0x0 /usr/m68k-ataribrown-elf/lib/m68020/softfp/libc.a(fprintf.o)
 .bss           0x00000000        0x0 /usr/m68k-ataribrown-elf/lib/m68020/softfp/libc.a(fprintf.o)
 .data          0x00000000        0x0 /usr/m68k-ataribrown-elf/lib/m68020/softfp/libc.a(fwrite.o)
 .bss           0x00000000        0x0 /usr/m68k-ataribrown-elf/lib/m68020/softfp/libc.a(fwrite.o)
 .text          0x00000000        0x0 /usr/m68k-ataribrown-elf/lib/m68020/softfp/libc.a(itoa-digits.o)
 .data          0x00000000        0x0 /usr/m68k-ataribrown-elf/lib/m68020/softfp/libc.a(itoa-digits.o)
 .bss           0x00000000        0x0 /usr/m68k-ataribrown-elf/lib/m68020/softfp/libc.a(itoa-digits.o)
 .data          0x00000000        0x0 /usr/m68k-ataribrown-elf/lib/m68020/softfp/libc.a(rewind.o)
 .bss           0x00000000        0x0 /usr/m68k-ataribrown-elf/lib/m68020/softfp/libc.a(rewind.o)
 .text          0x00000000       0x22 /usr/m68k-ataribrown-elf/lib/m68020/softfp/libc.a(snprintf.o)
 .data          0x00000000        0x0 /usr/m68k-ataribrown-elf/lib/m68020/softfp/libc.a(snprintf.o)
 .bss           0x00000000        0x0 /usr/m68k-ataribrown-elf/lib/m68020/softfp/libc.a(snprintf.o)
 .comment       0x00000000       0x12 /usr/m68k-ataribrown-elf/lib/m68020/softfp/libc.a(snprintf.o)
 .data          0x00000000        0x0 /usr/m68k-ataribrown-elf/lib/m68020/softfp/libc.a(sprintf.o)
 .bss           0x00000000        0x0 /usr/m68k-ataribrown-elf/lib/m68020/softfp/libc.a(sprintf.o)
 .data          0x00000000        0x0 /usr/m68k-ataribrown-elf/lib/m68020/softfp/libc.a(vfprintf.o)
 .bss           0x00000000        0x0 /usr/m68k-ataribrown-elf/lib/m68020/softfp/libc.a(vfprintf.o)
 .text          0x00000000      0x12e /usr/m68k-ataribrown-elf/lib/m68020/softfp/libc.a(vsnprintf.o)
 .data          0x00000000        0x0 /usr/m68k-ataribrown-elf/lib/m68020/softfp/libc.a(vsnprintf.o)
 .bss           0x00000000        0x0 /usr/m68k-ataribrown-elf/lib/m68020/softfp/libc.a(vsnprintf.o)
 .comment       0x00000000       0x12 /usr/m68k-ataribrown-elf/lib/m68020/softfp/libc.a(vsnprintf.o)
 .data          0x00000000        0x0 /usr/m68k-ataribrown-elf/lib/m68020/softfp/libc.a(vsprintf.o)
 .bss           0x00000000        0x0 /usr/m68k-ataribrown-elf/lib/m68020/softfp/libc.a(vsprintf.o)
 .data          0x00000000        0x0 /usr/m68k-ataribrown-elf/lib/m68020/softfp/libc.a(strtoul.o)
 .bss           0x00000000        0x0 /usr/m68k-ataribrown-elf/lib/m68020/softfp/libc.a(strtoul.o)
 .data          0x00000000        0x0 /usr/m68k-ataribrown-elf/lib/m68020/softfp/libc.a(bcmp.o)
 .bss           0x00000000        0x0 /usr/m68k-ataribrown-elf/lib/m68020/softfp/libc.a(bcmp.o)
 .data          0x00000000        0x0 /usr/m68k-ataribrown-elf/lib/m68020/softfp/libc.a(memchr.o)
 .bss           0x00000000        0x0 /usr/m68k-ataribrown-elf/lib/m68020/softfp/libc.a(memchr.o)
 .data          0x00000000        0x0 /usr/m68k-ataribrown-elf/lib/m68020/softfp/libc.a(mempcpy.o)
 .bss           0x00000000        0x0 /usr/m68k-ataribrown-elf/lib/m68020/softfp/libc.a(mempcpy.o)
 .data          0x00000000        0x0 /usr/m68k-ataribrown-elf/lib/m68020/softfp/libc.a(strcasecmp.o)
 .bss           0x00000000        0x0 /usr/m68k-ataribrown-elf/lib/m68020/softfp/libc.a(strcasecmp.o)
 .data          0x00000000        0x0 /usr/m68k-ataribrown-elf/lib/m68020/softfp/libc.a(strchr.o)
 .bss           0x00000000        0x0 /usr/m68k-ataribrown-elf/lib/m68020/softfp/libc.a(strchr.o)
 .data          0x00000000        0x0 /usr/m68k-ataribrown-elf/lib/m68020/softfp/libc.a(strcpy.o)
 .bss           0x00000000        0x0 /usr/m68k-ataribrown-elf/lib/m68020/softfp/libc.a(strcpy.o)
 .data          0x00000000        0x0 /usr/m68k-ataribrown-elf/lib/m68020/softfp/libc.a(strerror_r.o)
 .bss           0x00000000        0x0 /usr/m68k-ataribrown-elf/lib/m68020/softfp/libc.a(strerror_r.o)
 .data          0x00000000        0x0 /usr/m68k-ataribrown-elf/lib/m68020/softfp/libc.a(strncasecmp.o)
 .bss           0x00000000        0x0 /usr/m68k-ataribrown-elf/lib/m68020/softfp/libc.a(strncasecmp.o)
 .data          0x00000000        0x0 /usr/m68k-ataribrown-elf/lib/m68020/softfp/libc.a(strnlen.o)
 .bss           0x00000000        0x0 /usr/m68k-ataribrown-elf/lib/m68020/softfp/libc.a(strnlen.o)
 .data          0x00000000        0x0 /usr/m68k-ataribrown-elf/lib/m68020/softfp/libc.a(strpbrk.o)
 .bss           0x00000000        0x0 /usr/m68k-ataribrown-elf/lib/m68020/softfp/libc.a(strpbrk.o)
 .data          0x00000000        0x0 /usr/m68k-ataribrown-elf/lib/m68020/softfp/libc.a(strtok.o)
 .data          0x00000000        0x0 /usr/m68k-ataribrown-elf/lib/m68020/softfp/libc.a(strtok_r.o)
 .bss           0x00000000        0x0 /usr/m68k-ataribrown-elf/lib/m68020/softfp/libc.a(strtok_r.o)
 .data          0x00000000        0x0 /usr/m68k-ataribrown-elf/lib/m68020/softfp/libc.a(chmod.o)
 .bss           0x00000000        0x0 /usr/m68k-ataribrown-elf/lib/m68020/softfp/libc.a(chmod.o)
 .bss           0x00000000        0x0 /usr/m68k-ataribrown-elf/lib/m68020/softfp/libc.a(getegid.o)
 .bss           0x00000000        0x0 /usr/m68k-ataribrown-elf/lib/m68020/softfp/libc.a(geteuid.o)
 .bss           0x00000000        0x0 /usr/m68k-ataribrown-elf/lib/m68020/softfp/libc.a(getpid.o)
 .bss           0x00000000        0x0 /usr/m68k-ataribrown-elf/lib/m68020/softfp/libc.a(kill.o)
 .data          0x00000000        0x0 /usr/m68k-ataribrown-elf/lib/m68020/softfp/libc.a(select.o)
 .bss           0x00000000        0x0 /usr/m68k-ataribrown-elf/lib/m68020/softfp/libc.a(select.o)
 .data          0x00000000        0x0 /usr/m68k-ataribrown-elf/lib/m68020/softfp/libc.a(time.o)
 .bss           0x00000000        0x0 /usr/m68k-ataribrown-elf/lib/m68020/softfp/libc.a(time.o)
 .data          0x00000000        0x0 /usr/m68k-ataribrown-elf/lib/m68020/softfp/libc.a(connect.o)
 .bss           0x00000000        0x0 /usr/m68k-ataribrown-elf/lib/m68020/softfp/libc.a(connect.o)
 .data          0x00000000        0x0 /usr/m68k-ataribrown-elf/lib/m68020/softfp/libc.a(recv.o)
 .bss           0x00000000        0x0 /usr/m68k-ataribrown-elf/lib/m68020/softfp/libc.a(recv.o)
 .bss           0x00000000        0x0 /usr/m68k-ataribrown-elf/lib/m68020/softfp/libc.a(res_init.o)
 .data          0x00000000        0x0 /usr/m68k-ataribrown-elf/lib/m68020/softfp/libc.a(res_mkquery.o)
 .bss           0x00000000        0x0 /usr/m68k-ataribrown-elf/lib/m68020/softfp/libc.a(res_mkquery.o)
 .data          0x00000000        0x0 /usr/m68k-ataribrown-elf/lib/m68020/softfp/libc.a(abort.o)
 .bss           0x00000000        0x0 /usr/m68k-ataribrown-elf/lib/m68020/softfp/libc.a(abort.o)
 .data          0x00000000        0x0 /usr/m68k-ataribrown-elf/lib/m68020/softfp/libc.a(calloc.o)
 .bss           0x00000000        0x0 /usr/m68k-ataribrown-elf/lib/m68020/softfp/libc.a(calloc.o)
 .data          0x00000000        0x0 /usr/m68k-ataribrown-elf/lib/m68020/softfp/libc.a(fgetpwent_r.o)
 .bss           0x00000000        0x0 /usr/m68k-ataribrown-elf/lib/m68020/softfp/libc.a(fgetpwent_r.o)
 .data          0x00000000        0x0 /usr/m68k-ataribrown-elf/lib/m68020/softfp/libc.a(_itoa.o)
 .bss           0x00000000        0x0 /usr/m68k-ataribrown-elf/lib/m68020/softfp/libc.a(_itoa.o)
 .data          0x00000000        0x0 /usr/m68k-ataribrown-elf/lib/m68020/softfp/libc.a(clearerr.o)
 .bss           0x00000000        0x0 /usr/m68k-ataribrown-elf/lib/m68020/softfp/libc.a(clearerr.o)
 .data          0x00000000        0x0 /usr/m68k-ataribrown-elf/lib/m68020/softfp/libc.a(lockfile.o)
 .bss           0x00000000        0x0 /usr/m68k-ataribrown-elf/lib/m68020/softfp/libc.a(lockfile.o)
 .data          0x00000000        0x0 /usr/m68k-ataribrown-elf/lib/m68020/softfp/libc.a(printf_fp.o)
 .bss           0x00000000        0x0 /usr/m68k-ataribrown-elf/lib/m68020/softfp/libc.a(printf_fp.o)
 .data          0x00000000        0x0 /usr/m68k-ataribrown-elf/lib/m68020/softfp/libc.a(printf_fphex.o)
 .bss           0x00000000        0x0 /usr/m68k-ataribrown-elf/lib/m68020/softfp/libc.a(printf_fphex.o)
 .text          0x00000000       0x3a /usr/m68k-ataribrown-elf/lib/m68020/softfp/libc.a(reg-printf.o)
 .data          0x00000000        0x0 /usr/m68k-ataribrown-elf/lib/m68020/softfp/libc.a(reg-printf.o)
 .bss           0x00000000      0x400 /usr/m68k-ataribrown-elf/lib/m68020/softfp/libc.a(reg-printf.o)
 .data          0x00000000        0x0 /usr/m68k-ataribrown-elf/lib/m68020/softfp/libc.a(ungetc.o)
 .bss           0x00000000        0x0 /usr/m68k-ataribrown-elf/lib/m68020/softfp/libc.a(ungetc.o)
 .text          0x00000000        0x0 /usr/m68k-ataribrown-elf/lib/m68020/softfp/libc.a(fpioconst.o)
 .data          0x00000000        0x0 /usr/m68k-ataribrown-elf/lib/m68020/softfp/libc.a(fpioconst.o)
 .bss           0x00000000        0x0 /usr/m68k-ataribrown-elf/lib/m68020/softfp/libc.a(fpioconst.o)
 .data          0x00000000        0x0 /usr/m68k-ataribrown-elf/lib/m68020/softfp/libc.a(asctime.o)
 .data          0x00000000        0x0 /usr/m68k-ataribrown-elf/lib/m68020/softfp/libc.a(strftime.o)
 .bss           0x00000000        0x0 /usr/m68k-ataribrown-elf/lib/m68020/softfp/libc.a(gettimeofday.o)
 .data          0x00000000        0x0 /usr/m68k-ataribrown-elf/lib/m68020/softfp/libc.a(poll.o)
 .bss           0x00000000        0x0 /usr/m68k-ataribrown-elf/lib/m68020/softfp/libc.a(poll.o)
 .data          0x00000000        0x0 /usr/m68k-ataribrown-elf/lib/m68020/softfp/libc.a(inet_makeaddr.o)
 .bss           0x00000000        0x0 /usr/m68k-ataribrown-elf/lib/m68020/softfp/libc.a(inet_makeaddr.o)
 .data          0x00000000        0x0 /usr/m68k-ataribrown-elf/lib/m68020/softfp/libc.a(dbl2mpn.o)
 .bss           0x00000000        0x0 /usr/m68k-ataribrown-elf/lib/m68020/softfp/libc.a(dbl2mpn.o)
 .data          0x00000000        0x0 /usr/m68k-ataribrown-elf/lib/m68020/softfp/libc.a(ldbl2mpn.o)
 .bss           0x00000000        0x0 /usr/m68k-ataribrown-elf/lib/m68020/softfp/libc.a(ldbl2mpn.o)
 .data          0x00000000        0x0 /usr/m68k-ataribrown-elf/lib/m68020/softfp/libc.a(mpn-cmp.o)
 .bss           0x00000000        0x0 /usr/m68k-ataribrown-elf/lib/m68020/softfp/libc.a(mpn-cmp.o)
 .data          0x00000000        0x0 /usr/m68k-ataribrown-elf/lib/m68020/softfp/libc.a(mpn-divrem.o)
 .bss           0x00000000        0x0 /usr/m68k-ataribrown-elf/lib/m68020/softfp/libc.a(mpn-divrem.o)
 .data          0x00000000        0x0 /usr/m68k-ataribrown-elf/lib/m68020/softfp/libc.a(mpn-lshift.o)
 .bss           0x00000000        0x0 /usr/m68k-ataribrown-elf/lib/m68020/softfp/libc.a(mpn-lshift.o)
 .data          0x00000000        0x0 /usr/m68k-ataribrown-elf/lib/m68020/softfp/libc.a(mpn-mul.o)
 .bss           0x00000000        0x0 /usr/m68k-ataribrown-elf/lib/m68020/softfp/libc.a(mpn-mul.o)
 .data          0x00000000        0x0 /usr/m68k-ataribrown-elf/lib/m68020/softfp/libc.a(mpn-mul_1.o)
 .bss           0x00000000        0x0 /usr/m68k-ataribrown-elf/lib/m68020/softfp/libc.a(mpn-mul_1.o)
 .data          0x00000000        0x0 /usr/m68k-ataribrown-elf/lib/m68020/softfp/libc.a(mpn-mul_n.o)
 .bss           0x00000000        0x0 /usr/m68k-ataribrown-elf/lib/m68020/softfp/libc.a(mpn-mul_n.o)
 .data          0x00000000        0x0 /usr/m68k-ataribrown-elf/lib/m68020/softfp/libc.a(mpn-rshift.o)
 .bss           0x00000000        0x0 /usr/m68k-ataribrown-elf/lib/m68020/softfp/libc.a(mpn-rshift.o)
 .data          0x00000000        0x0 /usr/m68k-ataribrown-elf/lib/m68020/softfp/libc.a(mpn-sub_n.o)
 .bss           0x00000000        0x0 /usr/m68k-ataribrown-elf/lib/m68020/softfp/libc.a(mpn-sub_n.o)
 .data          0x00000000        0x0 /usr/m68k-ataribrown-elf/lib/m68020/softfp/libc.a(mpn-submul_1.o)
 .bss           0x00000000        0x0 /usr/m68k-ataribrown-elf/lib/m68020/softfp/libc.a(mpn-submul_1.o)
 .data          0x00000000        0x0 /usr/m68k-ataribrown-elf/lib/m68020/softfp/libc.a(s_isinf.o)
 .bss           0x00000000        0x0 /usr/m68k-ataribrown-elf/lib/m68020/softfp/libc.a(s_isinf.o)
 .data          0x00000000        0x0 /usr/m68k-ataribrown-elf/lib/m68020/softfp/libc.a(s_isinfl.o)
 .bss           0x00000000        0x0 /usr/m68k-ataribrown-elf/lib/m68020/softfp/libc.a(s_isinfl.o)
 .data          0x00000000        0x0 /usr/m68k-ataribrown-elf/lib/m68020/softfp/libc.a(s_isnan.o)
 .bss           0x00000000        0x0 /usr/m68k-ataribrown-elf/lib/m68020/softfp/libc.a(s_isnan.o)
 .data          0x00000000        0x0 /usr/m68k-ataribrown-elf/lib/m68020/softfp/libc.a(s_isnanl.o)
 .bss           0x00000000        0x0 /usr/m68k-ataribrown-elf/lib/m68020/softfp/libc.a(s_isnanl.o)
 .data          0x00000000        0x0 /usr/m68k-ataribrown-elf/lib/m68020/softfp/libc.a(s_signbit.o)
 .bss           0x00000000        0x0 /usr/m68k-ataribrown-elf/lib/m68020/softfp/libc.a(s_signbit.o)
 .data          0x00000000        0x0 /usr/m68k-ataribrown-elf/lib/m68020/softfp/libc.a(s_signbitl.o)
 .bss           0x00000000        0x0 /usr/m68k-ataribrown-elf/lib/m68020/softfp/libc.a(s_signbitl.o)
 .data          0x00000000        0x0 /usr/m68k-ataribrown-elf/lib/m68020/softfp/libc.a(setlocale.o)
 .bss           0x00000000        0x0 /usr/m68k-ataribrown-elf/lib/m68020/softfp/libc.a(setlocale.o)
 .data          0x00000000        0x0 /usr/m68k-ataribrown-elf/lib/m68020/softfp/libc.a(fputc.o)
 .bss           0x00000000        0x0 /usr/m68k-ataribrown-elf/lib/m68020/softfp/libc.a(fputc.o)
 .data          0x00000000        0x0 /usr/m68k-ataribrown-elf/lib/m68020/softfp/libc.a(mpn-add_n.o)
 .bss           0x00000000        0x0 /usr/m68k-ataribrown-elf/lib/m68020/softfp/libc.a(mpn-add_n.o)
 .data          0x00000000        0x0 /usr/m68k-ataribrown-elf/lib/m68020/softfp/libc.a(mpn-addmul_1.o)
 .bss           0x00000000        0x0 /usr/m68k-ataribrown-elf/lib/m68020/softfp/libc.a(mpn-addmul_1.o)
 .data          0x00000000        0x0 /lib/gcc/m68k-ataribrown-elf/6.2.0/m68020/softfp/libgcc.a(_double.o)
 .bss           0x00000000        0x0 /lib/gcc/m68k-ataribrown-elf/6.2.0/m68020/softfp/libgcc.a(_double.o)
 .bss           0x00000000        0x0 /lib/gcc/m68k-ataribrown-elf/6.2.0/m68020/softfp/libgcc.a(_floatex.o)
 .data          0x00000000        0x0 /lib/gcc/m68k-ataribrown-elf/6.2.0/m68020/softfp/libgcc.a(_ltdf2.o)
 .bss           0x00000000        0x0 /lib/gcc/m68k-ataribrown-elf/6.2.0/m68020/softfp/libgcc.a(_ltdf2.o)
 .data          0x00000000        0x0 /lib/gcc/m68k-ataribrown-elf/6.2.0/m68020/softfp/libgcc.a(fpgnulib.o)
 .bss           0x00000000        0x0 /lib/gcc/m68k-ataribrown-elf/6.2.0/m68020/softfp/libgcc.a(fpgnulib.o)
 .data          0x00000000        0x0 /lib/gcc/m68k-ataribrown-elf/6.2.0/m68020/softfp/libgcc.a(xfgnulib.o)
 .bss           0x00000000        0x0 /lib/gcc/m68k-ataribrown-elf/6.2.0/m68020/softfp/libgcc.a(xfgnulib.o)
 .data          0x00000000        0x0 /usr/m68k-ataribrown-elf/lib/m68020/softfp/libc.a(fscanf.o)
 .bss           0x00000000        0x0 /usr/m68k-ataribrown-elf/lib/m68020/softfp/libc.a(fscanf.o)
 .data          0x00000000        0x0 /usr/m68k-ataribrown-elf/lib/m68020/softfp/libc.a(printf.o)
 .bss           0x00000000        0x0 /usr/m68k-ataribrown-elf/lib/m68020/softfp/libc.a(printf.o)
 .data          0x00000000        0x0 /usr/m68k-ataribrown-elf/lib/m68020/softfp/libc.a(sscanf.o)
 .bss           0x00000000        0x0 /usr/m68k-ataribrown-elf/lib/m68020/softfp/libc.a(sscanf.o)
 .data          0x00000000        0x0 /usr/m68k-ataribrown-elf/lib/m68020/softfp/libc.a(vfscanf.o)
 .bss           0x00000000        0x0 /usr/m68k-ataribrown-elf/lib/m68020/softfp/libc.a(vfscanf.o)
 .data          0x00000000        0x0 /usr/m68k-ataribrown-elf/lib/m68020/softfp/libc.a(vsscanf.o)
 .bss           0x00000000        0x0 /usr/m68k-ataribrown-elf/lib/m68020/softfp/libc.a(vsscanf.o)
 .data          0x00000000        0x0 /usr/m68k-ataribrown-elf/lib/m68020/softfp/libc.a(strtod.o)
 .bss           0x00000000        0x0 /usr/m68k-ataribrown-elf/lib/m68020/softfp/libc.a(strtod.o)
 .data          0x00000000        0x0 /usr/m68k-ataribrown-elf/lib/m68020/softfp/libc.a(strtof.o)
 .bss           0x00000000        0x0 /usr/m68k-ataribrown-elf/lib/m68020/softfp/libc.a(strtof.o)
 .data          0x00000000        0x0 /usr/m68k-ataribrown-elf/lib/m68020/softfp/libc.a(strtold.o)
 .bss           0x00000000        0x0 /usr/m68k-ataribrown-elf/lib/m68020/softfp/libc.a(strtold.o)
 .data          0x00000000        0x0 /usr/m68k-ataribrown-elf/lib/m68020/softfp/libc.a(strtoll.o)
 .bss           0x00000000        0x0 /usr/m68k-ataribrown-elf/lib/m68020/softfp/libc.a(strtoll.o)
 .data          0x00000000        0x0 /usr/m68k-ataribrown-elf/lib/m68020/softfp/libc.a(strtoull.o)
 .bss           0x00000000        0x0 /usr/m68k-ataribrown-elf/lib/m68020/softfp/libc.a(strtoull.o)
 .data          0x00000000        0x0 /usr/m68k-ataribrown-elf/lib/m68020/softfp/libc.a(mpn2dbl.o)
 .bss           0x00000000        0x0 /usr/m68k-ataribrown-elf/lib/m68020/softfp/libc.a(mpn2dbl.o)
 .data          0x00000000        0x0 /usr/m68k-ataribrown-elf/lib/m68020/softfp/libc.a(mpn2flt.o)
 .bss           0x00000000        0x0 /usr/m68k-ataribrown-elf/lib/m68020/softfp/libc.a(mpn2flt.o)
 .data          0x00000000        0x0 /usr/m68k-ataribrown-elf/lib/m68020/softfp/libc.a(mpn2ldbl.o)
 .bss           0x00000000        0x0 /usr/m68k-ataribrown-elf/lib/m68020/softfp/libc.a(mpn2ldbl.o)
 .data          0x00000000        0x0 /lib/gcc/m68k-ataribrown-elf/6.2.0/m68020/softfp/libgcc.a(_muldi3.o)
 .bss           0x00000000        0x0 /lib/gcc/m68k-ataribrown-elf/6.2.0/m68020/softfp/libgcc.a(_muldi3.o)
 .data          0x00000000        0x0 /lib/gcc/m68k-ataribrown-elf/6.2.0/m68020/softfp/libgcc.a(_udivdi3.o)
 .bss           0x00000000        0x0 /lib/gcc/m68k-ataribrown-elf/6.2.0/m68020/softfp/libgcc.a(_udivdi3.o)
 .data          0x00000000        0x0 /lib/gcc/m68k-ataribrown-elf/6.2.0/m68020/softfp/libgcc.a(_umoddi3.o)
 .bss           0x00000000        0x0 /lib/gcc/m68k-ataribrown-elf/6.2.0/m68020/softfp/libgcc.a(_umoddi3.o)

Memory Configuration

Name             Origin             Length             Attributes
*default*        0x00000000         0xffffffff

Linker script and memory map

LOAD /usr/m68k-ataribrown-elf/lib/crt0.o
LOAD mStartup.o
LOAD /tmp/ccWJ2D8E.ltrans0.ltrans.o
LOAD /tmp/ccWJ2D8E.ltrans1.ltrans.o
LOAD /tmp/ccWJ2D8E.ltrans2.ltrans.o
LOAD /tmp/ccWJ2D8E.ltrans3.ltrans.o
LOAD /tmp/ccWJ2D8E.ltrans4.ltrans.o
LOAD /tmp/ccWJ2D8E.ltrans5.ltrans.o
LOAD /tmp/ccWJ2D8E.ltrans6.ltrans.o
LOAD /tmp/ccWJ2D8E.ltrans7.ltrans.o
LOAD /tmp/ccWJ2D8E.ltrans8.ltrans.o
LOAD /tmp/ccWJ2D8E.ltrans9.ltrans.o
LOAD /tmp/ccWJ2D8E.ltrans10.ltrans.o
LOAD /tmp/ccWJ2D8E.ltrans11.ltrans.o
LOAD /tmp/ccWJ2D8E.ltrans12.ltrans.o
LOAD /tmp/ccWJ2D8E.ltrans13.ltrans.o
LOAD /tmp/ccWJ2D8E.ltrans14.ltrans.o
LOAD /tmp/ccWJ2D8E.ltrans15.ltrans.o
LOAD /tmp/ccWJ2D8E.ltrans16.ltrans.o
LOAD /tmp/ccWJ2D8E.ltrans17.ltrans.o
LOAD /tmp/ccWJ2D8E.ltrans18.ltrans.o
LOAD /tmp/ccWJ2D8E.ltrans19.ltrans.o
LOAD /tmp/ccWJ2D8E.ltrans20.ltrans.o
LOAD /tmp/ccWJ2D8E.ltrans21.ltrans.o
LOAD /tmp/ccWJ2D8E.ltrans22.ltrans.o
LOAD /tmp/ccWJ2D8E.ltrans23.ltrans.o
LOAD /tmp/ccWJ2D8E.ltrans24.ltrans.o
LOAD /tmp/ccWJ2D8E.ltrans25.ltrans.o
LOAD /tmp/ccWJ2D8E.ltrans26.ltrans.o
LOAD /tmp/ccWJ2D8E.ltrans27.ltrans.o
LOAD /tmp/ccWJ2D8E.ltrans28.ltrans.o
LOAD /tmp/ccWJ2D8E.ltrans29.ltrans.o
LOAD /tmp/ccWJ2D8E.ltrans30.ltrans.o
LOAD /tmp/ccWJ2D8E.ltrans31.ltrans.o
LOAD os.o
LOAD memcpy.o
LOAD vsnprint.o
LOAD inih/ini.o
LOAD quantize.o
LOAD doomdef.o
LOAD doomstat.o
LOAD dstrings.o
LOAD d_net.o
LOAD i_system.o
LOAD i_sound_atari.o
LOAD i_music_atari.o
LOAD i_video_atari.o
LOAD i_input_atari.o
LOAD i_net.o
LOAD tables.o
LOAD f_finale.o
LOAD f_wipe.o
LOAD d_main.o
LOAD d_items.o
LOAD g_game.o
LOAD m_menu.o
LOAD m_misc.o
LOAD m_argv.o
LOAD m_bbox.o
LOAD m_fixed.o
LOAD m_swap.o
LOAD m_cheat.o
LOAD m_random.o
LOAD am_map.o
LOAD p_ceilng.o
LOAD p_doors.o
LOAD p_enemy.o
LOAD p_floor.o
LOAD p_inter.o
LOAD p_lights.o
LOAD p_map.o
LOAD p_maputl.o
LOAD p_plats.o
LOAD p_pspr.o
LOAD p_setup.o
LOAD p_sight.o
LOAD p_spec.o
LOAD p_switch.o
LOAD p_mobj.o
LOAD p_telept.o
LOAD p_tick.o
LOAD p_saveg.o
LOAD p_user.o
LOAD r_bsp.o
LOAD r_data.o
LOAD r_draw.o
LOAD r_main.o
LOAD r_plane.o
LOAD r_segs.o
LOAD r_sky.o
LOAD r_things.o
LOAD w_wad.o
LOAD wi_stuff.o
LOAD v_video.o
LOAD st_lib.o
LOAD st_stuff.o
LOAD hu_stuff.o
LOAD hu_lib.o
LOAD s_sound.o
LOAD z_zone.o
LOAD info.o
LOAD sounds.o
LOAD i_main.o
LOAD ../bmengine/libbmengine.a
LOAD /usr/m68k-ataribrown-elf/lib/m68020/softfp/libc.a
LOAD /lib/gcc/m68k-ataribrown-elf/6.2.0/m68020/softfp/libgcc.a
Address of section .text set to 0x0
                [!provide]                PROVIDE (__executable_start, 0x80000000)
                0x80000074                . = (0x80000000 + SIZEOF_HEADERS)

.interp
 *(.interp)

.note.gnu.build-id
 *(.note.gnu.build-id)

.hash
 *(.hash)

.gnu.hash
 *(.gnu.hash)

.dynsym
 *(.dynsym)

.dynstr
 *(.dynstr)

.gnu.version
 *(.gnu.version)

.gnu.version_d
 *(.gnu.version_d)

.gnu.version_r
 *(.gnu.version_r)

.rela.dyn       0x80000074        0x0
 *(.rela.init)
 *(.rela.text .rela.text.* .rela.gnu.linkonce.t.*)
 *(.rela.fini)
 *(.rela.rodata .rela.rodata.* .rela.gnu.linkonce.r.*)
 *(.rela.data .rela.data.* .rela.gnu.linkonce.d.*)
 *(.rela.tdata .rela.tdata.* .rela.gnu.linkonce.td.*)
 *(.rela.tbss .rela.tbss.* .rela.gnu.linkonce.tb.*)
 *(.rela.ctors)
 *(.rela.dtors)
 *(.rela.got)
 *(.rela.bss .rela.bss.* .rela.gnu.linkonce.b.*)
                [!provide]                PROVIDE (__rela_iplt_start, .)
 *(.rela.iplt)
                [!provide]                PROVIDE (__rela_iplt_end, .)

.rela.plt
 *(.rela.plt)

.init
 *(SORT(.init))

.plt
 *(.plt)

.iplt
 *(.iplt)

.text           0x00000000    0x5ae9a
 *(.text.unlikely .text.*_unlikely .text.unlikely.*)
 .text.unlikely.R_FlatNumForName.part.0
                0x00000000       0x2c /tmp/ccWJ2D8E.ltrans14.ltrans.o
                0x00000000                _R_FlatNumForName.part.0
 .text.unlikely.assign_bmm_channel.constprop.42
                0x0000002c      0x1d8 /tmp/ccWJ2D8E.ltrans15.ltrans.o
                0x0000002c                _assign_bmm_channel.constprop.42
 .text.unlikely.api_channel_cleanup
                0x00000204       0x50 /tmp/ccWJ2D8E.ltrans22.ltrans.o
 .text.unlikely.UDPsocket.part.0
                0x00000254       0x1a /tmp/ccWJ2D8E.ltrans25.ltrans.o
                0x00000254                _UDPsocket.part.0
 *(.text.exit .text.exit.*)
 *(.text.startup .text.startup.*)
 .text.startup.main
                0x0000026e      0x3a4 /tmp/ccWJ2D8E.ltrans18.ltrans.o
                0x0000026e                _main
 *(.text.hot .text.hot.*)
 *(.text .stub .text.* .gnu.linkonce.t.*)
 *fill*         0x00000612        0x2 4e714e71
 .text          0x00000614       0x70 /usr/m68k-ataribrown-elf/lib/crt0.o
                0x00000614                __start
                0x00000682                __monstartup
                0x00000682                __moncontrol
                0x00000682                ___mcleanup
 .text.G_Ticker
                0x00000684     0x4180 /tmp/ccWJ2D8E.ltrans0.ltrans.o
                0x00000684                _G_Ticker
 .text.D_DoomMain
                0x00004804     0x2b7a /tmp/ccWJ2D8E.ltrans1.ltrans.o
                0x00004804                _D_DoomMain
 .text.G_DoLoadLevel
                0x0000737e     0x2878 /tmp/ccWJ2D8E.ltrans2.ltrans.o
                0x0000737e                _G_DoLoadLevel
 .text.AM_Drawer.part.4
                0x00009bf6     0x2e72 /tmp/ccWJ2D8E.ltrans3.ltrans.o
                0x00009bf6                _AM_Drawer.part.4
 .text.D_DoomLoop
                0x0000ca68     0x28c2 /tmp/ccWJ2D8E.ltrans4.ltrans.o
                0x0000ca68                _D_DoomLoop
 .text.BM_A_GenerateLCLUT32x32
                0x0000f32a      0x304 /tmp/ccWJ2D8E.ltrans5.ltrans.o
                0x0000f32a                _BM_A_GenerateLCLUT32x32
 .text.BM_A_GenerateLCLUT64x256
                0x0000f62e      0x304 /tmp/ccWJ2D8E.ltrans5.ltrans.o
                0x0000f62e                _BM_A_GenerateLCLUT64x256
 .text.segdist2
                0x0000f932       0x60 /tmp/ccWJ2D8E.ltrans5.ltrans.o
                0x0000f932                _segdist2
 .text.D_QuitNetGame
                0x0000f992      0x1a6 /tmp/ccWJ2D8E.ltrans5.ltrans.o
                0x0000f992                _D_QuitNetGame
 .text.I_Error  0x0000fb38      0x2ea /tmp/ccWJ2D8E.ltrans5.ltrans.o
                0x0000fb38                _I_Error
 .text.I_InitSound
                0x0000fe22      0xc94 /tmp/ccWJ2D8E.ltrans5.ltrans.o
                0x0000fe22                _I_InitSound
 .text.HGetPacket.part.0
                0x00010ab6      0x1d6 /tmp/ccWJ2D8E.ltrans5.ltrans.o
 .text.CheckAbort
                0x00010c8c      0x154 /tmp/ccWJ2D8E.ltrans5.ltrans.o
 .text.D_CheckNetGame
                0x00010de0      0x9f4 /tmp/ccWJ2D8E.ltrans5.ltrans.o
                0x00010de0                _D_CheckNetGame
 .text.NetUpdate
                0x000117d4      0x586 /tmp/ccWJ2D8E.ltrans5.ltrans.o
                0x000117d4                _NetUpdate
 .text.D_ProcessEvents
                0x00011d5a     0x280c /tmp/ccWJ2D8E.ltrans6.ltrans.o
                0x00011d5a                _D_ProcessEvents
 .text.D_PostEvent
                0x00014566       0x2c /tmp/ccWJ2D8E.ltrans6.ltrans.o
                0x00014566                _D_PostEvent
 .text.F_CastTicker.part.0
                0x00014592      0x56e /tmp/ccWJ2D8E.ltrans6.ltrans.o
                0x00014592                _F_CastTicker.part.0
 .text.A_BFGsound
                0x00014b00       0x1c /tmp/ccWJ2D8E.ltrans7.ltrans.o
                0x00014b00                _A_BFGsound
 .text.A_BFGSpray
                0x00014b1c      0x27e /tmp/ccWJ2D8E.ltrans7.ltrans.o
                0x00014b1c                _A_BFGSpray
 .text.P_ChangeSwitchTexture
                0x00014d9a      0xc22 /tmp/ccWJ2D8E.ltrans7.ltrans.o
                0x00014d9a                _P_ChangeSwitchTexture
 .text.P_CrossSpecialLine
                0x000159bc      0x8b0 /tmp/ccWJ2D8E.ltrans7.ltrans.o
                0x000159bc                _P_CrossSpecialLine
 .text.P_FindLowestCeilingSurrounding
                0x0001626c       0x5a /tmp/ccWJ2D8E.ltrans7.ltrans.o
                0x0001626c                _P_FindLowestCeilingSurrounding
 .text.P_UseSpecialLine
                0x000162c6      0xb50 /tmp/ccWJ2D8E.ltrans7.ltrans.o
                0x000162c6                _P_UseSpecialLine
 .text.P_FindNextHighestFloor
                0x00016e16       0xaa /tmp/ccWJ2D8E.ltrans7.ltrans.o
                0x00016e16                _P_FindNextHighestFloor
 .text.P_FindHighestFloorSurrounding
                0x00016ec0       0x58 /tmp/ccWJ2D8E.ltrans7.ltrans.o
                0x00016ec0                _P_FindHighestFloorSurrounding
 .text.P_FindLowestFloorSurrounding
                0x00016f18       0x48 /tmp/ccWJ2D8E.ltrans7.ltrans.o
                0x00016f18                _P_FindLowestFloorSurrounding
 .text.P_CheckSight
                0x00016f60       0x8e /tmp/ccWJ2D8E.ltrans7.ltrans.o
                0x00016f60                _P_CheckSight
 .text.WI_initShowNextLoc
                0x00016fee       0x30 /tmp/ccWJ2D8E.ltrans8.ltrans.o
 .text.WI_drawOnLnode
                0x0001701e       0xbe /tmp/ccWJ2D8E.ltrans8.ltrans.o
 .text.WI_updateStats
                0x000170dc      0x47e /tmp/ccWJ2D8E.ltrans8.ltrans.o
                0x000170dc                _WI_updateStats
 .text.WI_updateDeathmatchStats
                0x0001755a      0x492 /tmp/ccWJ2D8E.ltrans8.ltrans.o
                0x0001755a                _WI_updateDeathmatchStats
 .text.WI_fragSum
                0x000179ec       0x94 /tmp/ccWJ2D8E.ltrans8.ltrans.o
                0x000179ec                _WI_fragSum
 .text.WI_updateNetgameStats
                0x00017a80      0x9aa /tmp/ccWJ2D8E.ltrans8.ltrans.o
                0x00017a80                _WI_updateNetgameStats
 .text.WI_drawShowNextLoc
                0x0001842a      0x25e /tmp/ccWJ2D8E.ltrans8.ltrans.o
                0x0001842a                _WI_drawShowNextLoc
 .text.WI_drawAnimatedBack
                0x00018688       0x7a /tmp/ccWJ2D8E.ltrans8.ltrans.o
                0x00018688                _WI_drawAnimatedBack
 .text.WI_drawLF
                0x00018702       0xb4 /tmp/ccWJ2D8E.ltrans8.ltrans.o
                0x00018702                _WI_drawLF
 .text.W_ReadLump
                0x000187b6      0x126 /tmp/ccWJ2D8E.ltrans8.ltrans.o
                0x000187b6                _W_ReadLump
 .text.W_CacheLumpNum
                0x000188dc      0x23c /tmp/ccWJ2D8E.ltrans8.ltrans.o
                0x000188dc                _W_CacheLumpNum
 .text.W_LumpLength
                0x00018b18       0x2e /tmp/ccWJ2D8E.ltrans8.ltrans.o
                0x00018b18                _W_LumpLength
 .text.W_CheckNumForName
                0x00018b46       0xa0 /tmp/ccWJ2D8E.ltrans8.ltrans.o
                0x00018b46                _W_CheckNumForName
 .text.W_GetNumForName
                0x00018be6       0x24 /tmp/ccWJ2D8E.ltrans8.ltrans.o
                0x00018be6                _W_GetNumForName
 .text.R_InstallSpriteLump
                0x00018c0a      0x14a /tmp/ccWJ2D8E.ltrans8.ltrans.o
                0x00018c0a                _R_InstallSpriteLump
 .text.R_ExecuteSetViewSize
                0x00018d54      0x510 /tmp/ccWJ2D8E.ltrans8.ltrans.o
                0x00018d54                _R_ExecuteSetViewSize
 .text.R_FillBackScreen
                0x00019264      0x546 /tmp/ccWJ2D8E.ltrans8.ltrans.o
                0x00019264                _R_FillBackScreen
 .text.PTR_AimTraverse
                0x000197aa      0x27a /tmp/ccWJ2D8E.ltrans9.ltrans.o
                0x000197aa                _PTR_AimTraverse
 .text.T_Glow   0x00019a24       0xa0 /tmp/ccWJ2D8E.ltrans9.ltrans.o
                0x00019a24                _T_Glow
 .text.T_StrobeFlash
                0x00019ac4       0x78 /tmp/ccWJ2D8E.ltrans9.ltrans.o
                0x00019ac4                _T_StrobeFlash
 .text.PTR_UseTraverse
                0x00019b3c      0x1ba /tmp/ccWJ2D8E.ltrans9.ltrans.o
                0x00019b3c                _PTR_UseTraverse
 .text.PTR_ShootTraverse
                0x00019cf6      0x6ca /tmp/ccWJ2D8E.ltrans9.ltrans.o
                0x00019cf6                _PTR_ShootTraverse
 .text.PTR_SlideTraverse
                0x0001a3c0      0x19e /tmp/ccWJ2D8E.ltrans9.ltrans.o
                0x0001a3c0                _PTR_SlideTraverse
 .text.P_ChangeSector
                0x0001a55e      0x556 /tmp/ccWJ2D8E.ltrans9.ltrans.o
                0x0001a55e                _P_ChangeSector
 .text.P_CheckPosition
                0x0001aab4       0xa4 /tmp/ccWJ2D8E.ltrans9.ltrans.o
                0x0001aab4                _P_CheckPosition
 .text.P_RadiusAttack
                0x0001ab58      0x174 /tmp/ccWJ2D8E.ltrans9.ltrans.o
                0x0001ab58                _P_RadiusAttack
 .text.P_PointOnLineSide.lto_priv.133
                0x0001accc       0x8c /tmp/ccWJ2D8E.ltrans9.ltrans.o
                0x0001accc                _P_PointOnLineSide.lto_priv.133
 .text.P_TeleportMove
                0x0001ad58      0x1d8 /tmp/ccWJ2D8E.ltrans9.ltrans.o
                0x0001ad58                _P_TeleportMove
 .text.EV_LightTurnOn
                0x0001af30       0xc8 /tmp/ccWJ2D8E.ltrans9.ltrans.o
                0x0001af30                _EV_LightTurnOn
 .text.P_SpawnStrobeFlash
                0x0001aff8      0x100 /tmp/ccWJ2D8E.ltrans9.ltrans.o
                0x0001aff8                _P_SpawnStrobeFlash
 .text.P_RemoveActivePlat
                0x0001b0f8       0x3e /tmp/ccWJ2D8E.ltrans10.ltrans.o
 .text.T_ElevatorMove
                0x0001b136      0x14c /tmp/ccWJ2D8E.ltrans10.ltrans.o
 .text.T_PlatRaise
                0x0001b282      0x18c /tmp/ccWJ2D8E.ltrans10.ltrans.o
                0x0001b282                _T_PlatRaise
 .text.P_SetPsprite
                0x0001b40e       0xa0 /tmp/ccWJ2D8E.ltrans10.ltrans.o
                0x0001b40e                _P_SetPsprite
 .text.EV_StopPlat
                0x0001b4ae       0x4a /tmp/ccWJ2D8E.ltrans10.ltrans.o
                0x0001b4ae                _EV_StopPlat
 .text.EV_DoElevator
                0x0001b4f8      0x246 /tmp/ccWJ2D8E.ltrans10.ltrans.o
                0x0001b4f8                _EV_DoElevator
 .text.EV_DoPlat
                0x0001b73e      0x404 /tmp/ccWJ2D8E.ltrans10.ltrans.o
                0x0001b73e                _EV_DoPlat
 .text.PIT_AddThingIntercepts.lto_priv.93
                0x0001bb42      0x226 /tmp/ccWJ2D8E.ltrans10.ltrans.o
                0x0001bb42                _PIT_AddThingIntercepts.lto_priv.93
 .text.P_PathTraverse
                0x0001bd68      0xba4 /tmp/ccWJ2D8E.ltrans10.ltrans.o
                0x0001bd68                _P_PathTraverse
 .text.P_SetThingPosition
                0x0001c90c       0xb4 /tmp/ccWJ2D8E.ltrans10.ltrans.o
                0x0001c90c                _P_SetThingPosition
 .text.A_LoadShotgun2
                0x0001c9c0       0x1c /tmp/ccWJ2D8E.ltrans11.ltrans.o
                0x0001c9c0                _A_LoadShotgun2
 .text.A_OpenShotgun2
                0x0001c9dc       0x1c /tmp/ccWJ2D8E.ltrans11.ltrans.o
                0x0001c9dc                _A_OpenShotgun2
 .text.A_Fall   0x0001c9f8        0xc /tmp/ccWJ2D8E.ltrans11.ltrans.o
                0x0001c9f8                _A_Fall
 .text.A_Pain   0x0001ca04       0x26 /tmp/ccWJ2D8E.ltrans11.ltrans.o
                0x0001ca04                _A_Pain
 .text.A_XScream
                0x0001ca2a       0x1a /tmp/ccWJ2D8E.ltrans11.ltrans.o
                0x0001ca2a                _A_XScream
 .text.A_Scream
                0x0001ca44       0xb8 /tmp/ccWJ2D8E.ltrans11.ltrans.o
                0x0001ca44                _A_Scream
 .text.A_SpawnFly
                0x0001cafc       0x18 /tmp/ccWJ2D8E.ltrans11.ltrans.o
                0x0001cafc                _A_SpawnFly
 .text.A_SpawnSound
                0x0001cb14       0x38 /tmp/ccWJ2D8E.ltrans11.ltrans.o
                0x0001cb14                _A_SpawnSound
 .text.A_BrainSpit
                0x0001cb4c      0x382 /tmp/ccWJ2D8E.ltrans11.ltrans.o
                0x0001cb4c                _A_BrainSpit
 .text.A_BrainPain
                0x0001cece      0x354 /tmp/ccWJ2D8E.ltrans11.ltrans.o
                0x0001cece                _A_BrainPain
 .text.A_BrainAwake
                0x0001d222      0x3b8 /tmp/ccWJ2D8E.ltrans11.ltrans.o
                0x0001d222                _A_BrainAwake
 .text.A_BrainDie
                0x0001d5da       0x16 /tmp/ccWJ2D8E.ltrans11.ltrans.o
                0x0001d5da                _A_BrainDie
 .text.A_BrainExplode
                0x0001d5f0       0xe4 /tmp/ccWJ2D8E.ltrans11.ltrans.o
                0x0001d5f0                _A_BrainExplode
 .text.A_BrainScream
                0x0001d6d4      0x17a /tmp/ccWJ2D8E.ltrans11.ltrans.o
                0x0001d6d4                _A_BrainScream
 .text.A_CloseShotgun2
                0x0001d84e       0xc0 /tmp/ccWJ2D8E.ltrans11.ltrans.o
                0x0001d84e                _A_CloseShotgun2
 .text.A_BabyMetal
                0x0001d90e       0x28 /tmp/ccWJ2D8E.ltrans11.ltrans.o
                0x0001d90e                _A_BabyMetal
 .text.A_Metal  0x0001d936       0x28 /tmp/ccWJ2D8E.ltrans11.ltrans.o
                0x0001d936                _A_Metal
 .text.A_Hoof   0x0001d95e       0x28 /tmp/ccWJ2D8E.ltrans11.ltrans.o
                0x0001d95e                _A_Hoof
 .text.A_BossDeath
                0x0001d986      0x24c /tmp/ccWJ2D8E.ltrans11.ltrans.o
                0x0001d986                _A_BossDeath
 .text.A_Explode
                0x0001dbd2       0x1a /tmp/ccWJ2D8E.ltrans11.ltrans.o
                0x0001dbd2                _A_Explode
 .text.A_PainDie
                0x0001dbec      0x172 /tmp/ccWJ2D8E.ltrans11.ltrans.o
                0x0001dbec                _A_PainDie
 .text.A_PainAttack
                0x0001dd5e       0x70 /tmp/ccWJ2D8E.ltrans11.ltrans.o
                0x0001dd5e                _A_PainAttack
 .text.A_SkullAttack
                0x0001ddce      0x106 /tmp/ccWJ2D8E.ltrans11.ltrans.o
                0x0001ddce                _A_SkullAttack
 .text.A_FatAttack3
                0x0001ded4       0xc0 /tmp/ccWJ2D8E.ltrans11.ltrans.o
                0x0001ded4                _A_FatAttack3
 .text.A_FatAttack2
                0x0001df94       0x86 /tmp/ccWJ2D8E.ltrans11.ltrans.o
                0x0001df94                _A_FatAttack2
 .text.A_FatAttack1
                0x0001e01a       0x86 /tmp/ccWJ2D8E.ltrans11.ltrans.o
                0x0001e01a                _A_FatAttack1
 .text.A_FatRaise
                0x0001e0a0       0x28 /tmp/ccWJ2D8E.ltrans11.ltrans.o
                0x0001e0a0                _A_FatRaise
 .text.A_VileAttack
                0x0001e0c8       0xcc /tmp/ccWJ2D8E.ltrans11.ltrans.o
                0x0001e0c8                _A_VileAttack
 .text.A_Fire   0x0001e194       0x7e /tmp/ccWJ2D8E.ltrans11.ltrans.o
                0x0001e194                _A_Fire
 .text.A_VileTarget
                0x0001e212       0x52 /tmp/ccWJ2D8E.ltrans11.ltrans.o
                0x0001e212                _A_VileTarget
 .text.T_LightFlash
                0x0001e264       0xc0 /tmp/ccWJ2D8E.ltrans12.ltrans.o
                0x0001e264                _T_LightFlash
 .text.T_FireFlicker
                0x0001e324       0xa2 /tmp/ccWJ2D8E.ltrans12.ltrans.o
                0x0001e324                _T_FireFlicker
 .text.T_MoveFloor
                0x0001e3c6      0x226 /tmp/ccWJ2D8E.ltrans12.ltrans.o
                0x0001e3c6                _T_MoveFloor
 .text.A_PlayerScream
                0x0001e5ec       0x4e /tmp/ccWJ2D8E.ltrans12.ltrans.o
                0x0001e5ec                _A_PlayerScream
 .text.P_DamageMobj
                0x0001e63a      0x5c0 /tmp/ccWJ2D8E.ltrans12.ltrans.o
                0x0001e63a                _P_DamageMobj
 .text.P_GiveAmmo
                0x0001ebfa      0x120 /tmp/ccWJ2D8E.ltrans12.ltrans.o
                0x0001ebfa                _P_GiveAmmo
 .text.P_GiveWeapon
                0x0001ed1a      0x168 /tmp/ccWJ2D8E.ltrans12.ltrans.o
                0x0001ed1a                _P_GiveWeapon
 .text.EV_BuildStairs
                0x0001ee82      0x236 /tmp/ccWJ2D8E.ltrans12.ltrans.o
                0x0001ee82                _EV_BuildStairs
 .text.EV_DoFloor
                0x0001f0b8      0x500 /tmp/ccWJ2D8E.ltrans12.ltrans.o
                0x0001f0b8                _EV_DoFloor
 .text.T_MovePlane
                0x0001f5b8      0x2e2 /tmp/ccWJ2D8E.ltrans12.ltrans.o
                0x0001f5b8                _T_MovePlane
 .text.A_SpawnFly.part.15
                0x0001f89a      0x2f2 /tmp/ccWJ2D8E.ltrans12.ltrans.o
                0x0001f89a                _A_SpawnFly.part.15
 .text.A_PainShootSkull.part.14
                0x0001fb8c      0x16c /tmp/ccWJ2D8E.ltrans12.ltrans.o
                0x0001fb8c                _A_PainShootSkull.part.14
 .text.D_QuantCubeCalcColor
                0x0001fcf8       0xe4 /tmp/ccWJ2D8E.ltrans13.ltrans.o
 .text.D_QuantCubeSortColorListRegion
                0x0001fddc       0x9a /tmp/ccWJ2D8E.ltrans13.ltrans.o
 .text.D_QuantCubeScanColorUsage
                0x0001fe76      0x138 /tmp/ccWJ2D8E.ltrans13.ltrans.o
 .text.fmtint   0x0001ffae      0x1be /tmp/ccWJ2D8E.ltrans13.ltrans.o
 .text.program_base
                0x0002016c        0x2 /tmp/ccWJ2D8E.ltrans13.ltrans.o
 .text.dopr     0x0002016e      0x664 /tmp/ccWJ2D8E.ltrans13.ltrans.o
 .text.ExpandTics
                0x000207d2       0x56 /tmp/ccWJ2D8E.ltrans13.ltrans.o
                0x000207d2                _ExpandTics
 .text.HSendPacket
                0x00020828      0x1ae /tmp/ccWJ2D8E.ltrans13.ltrans.o
                0x00020828                _HSendPacket
 .text.BM_E_QuantizePixelBlock
                0x000209d6      0x886 /tmp/ccWJ2D8E.ltrans13.ltrans.o
                0x000209d6                _BM_E_QuantizePixelBlock
 .text.snprintf
                0x0002125c       0x34 /tmp/ccWJ2D8E.ltrans13.ltrans.o
                0x0002125c                _snprintf
 .text.DebugPostMap
                0x00021290        0x2 /tmp/ccWJ2D8E.ltrans13.ltrans.o
                0x00021290                _DebugPostMap
 .text.fexists  0x00021292       0x52 /tmp/ccWJ2D8E.ltrans13.ltrans.o
                0x00021292                _fexists
 .text.bmprintf
                0x000212e4      0x16c /tmp/ccWJ2D8E.ltrans13.ltrans.o
                0x000212e4                _bmprintf
 .text.BM_S_ExceptionHandler
                0x00021450      0x556 /tmp/ccWJ2D8E.ltrans13.ltrans.o
                0x00021450                _BM_S_ExceptionHandler
 .text.c_dpf    0x000219a6       0x14 /tmp/ccWJ2D8E.ltrans13.ltrans.o
                0x000219a6                _c_dpf
 .text.P_CalcHeight
                0x000219ba      0x13e /tmp/ccWJ2D8E.ltrans14.ltrans.o
 .text.P_RemoveThinker
                0x00021af8        0xe /tmp/ccWJ2D8E.ltrans14.ltrans.o
                0x00021af8                _P_RemoveThinker
 .text.P_RemoveThinkerDelayed
                0x00021b06        0xe /tmp/ccWJ2D8E.ltrans14.ltrans.o
                0x00021b06                _P_RemoveThinkerDelayed
 .text.R_TextureNumForName
                0x00021b14      0x1a4 /tmp/ccWJ2D8E.ltrans14.ltrans.o
                0x00021b14                _R_TextureNumForName
 .text.R_InitTextures
                0x00021cb8      0x8e2 /tmp/ccWJ2D8E.ltrans14.ltrans.o
                0x00021cb8                _R_InitTextures
 .text.P_Ticker
                0x0002259a      0xe34 /tmp/ccWJ2D8E.ltrans14.ltrans.o
                0x0002259a                _P_Ticker
 .text.P_PathTraverse.constprop.65
                0x000233ce      0x894 /tmp/ccWJ2D8E.ltrans15.ltrans.o
                0x000233ce                _P_PathTraverse.constprop.65
 .text.EV_DoPlat.constprop.61
                0x00023c62      0x19c /tmp/ccWJ2D8E.ltrans15.ltrans.o
                0x00023c62                _EV_DoPlat.constprop.61
 .text.EV_DoDoor.constprop.60
                0x00023dfe      0x122 /tmp/ccWJ2D8E.ltrans15.ltrans.o
                0x00023dfe                _EV_DoDoor.constprop.60
 .text.EV_DoDoor.constprop.59
                0x00023f20      0x12c /tmp/ccWJ2D8E.ltrans15.ltrans.o
                0x00023f20                _EV_DoDoor.constprop.59
 .text.I_SetMusicVolume.constprop.40
                0x0002404c        0x2 /tmp/ccWJ2D8E.ltrans15.ltrans.o
                0x0002404c                _I_SetMusicVolume.constprop.40
 .text.AM_clipMline.constprop.31
                0x0002404e      0x404 /tmp/ccWJ2D8E.ltrans15.ltrans.o
                0x0002404e                _AM_clipMline.constprop.31
 .text.WI_drawNum.constprop.19
                0x00024452       0xb4 /tmp/ccWJ2D8E.ltrans15.ltrans.o
                0x00024452                _WI_drawNum.constprop.19
 .text.A_FireCrackle
                0x00024506       0x94 /tmp/ccWJ2D8E.ltrans16.ltrans.o
                0x00024506                _A_FireCrackle
 .text.A_StartFire
                0x0002459a       0x94 /tmp/ccWJ2D8E.ltrans16.ltrans.o
                0x0002459a                _A_StartFire
 .text.A_VileStart
                0x0002462e       0x1a /tmp/ccWJ2D8E.ltrans16.ltrans.o
                0x0002462e                _A_VileStart
 .text.A_SmokeTrail
                0x00024648       0x32 /tmp/ccWJ2D8E.ltrans16.ltrans.o
                0x00024648                _A_SmokeTrail
 .text.A_Tracer
                0x0002467a      0x340 /tmp/ccWJ2D8E.ltrans16.ltrans.o
                0x0002467a                _A_Tracer
 .text.A_FaceTarget
                0x000249ba       0x86 /tmp/ccWJ2D8E.ltrans16.ltrans.o
                0x000249ba                _A_FaceTarget
 .text.A_SkelFist
                0x00024a40       0x98 /tmp/ccWJ2D8E.ltrans16.ltrans.o
                0x00024a40                _A_SkelFist
 .text.A_SkelWhoosh
                0x00024ad8       0x2e /tmp/ccWJ2D8E.ltrans16.ltrans.o
                0x00024ad8                _A_SkelWhoosh
 .text.A_SargAttack
                0x00024b06       0x82 /tmp/ccWJ2D8E.ltrans16.ltrans.o
                0x00024b06                _A_SargAttack
 .text.A_SpidRefire
                0x00024b88       0x6a /tmp/ccWJ2D8E.ltrans16.ltrans.o
                0x00024b88                _A_SpidRefire
 .text.A_CPosRefire
                0x00024bf2       0x6a /tmp/ccWJ2D8E.ltrans16.ltrans.o
                0x00024bf2                _A_CPosRefire
 .text.A_SkelMissile
                0x00024c5c       0x54 /tmp/ccWJ2D8E.ltrans16.ltrans.o
                0x00024c5c                _A_SkelMissile
 .text.A_BruisAttack
                0x00024cb0       0x84 /tmp/ccWJ2D8E.ltrans16.ltrans.o
                0x00024cb0                _A_BruisAttack
 .text.A_CyberAttack
                0x00024d34       0x2c /tmp/ccWJ2D8E.ltrans16.ltrans.o
                0x00024d34                _A_CyberAttack
 .text.A_HeadAttack
                0x00024d60       0x96 /tmp/ccWJ2D8E.ltrans16.ltrans.o
                0x00024d60                _A_HeadAttack
 .text.A_TroopAttack
                0x00024df6       0x8c /tmp/ccWJ2D8E.ltrans16.ltrans.o
                0x00024df6                _A_TroopAttack
 .text.A_BspiAttack
                0x00024e82       0x2c /tmp/ccWJ2D8E.ltrans16.ltrans.o
                0x00024e82                _A_BspiAttack
 .text.A_CPosAttack
                0x00024eae      0x112 /tmp/ccWJ2D8E.ltrans16.ltrans.o
                0x00024eae                _A_CPosAttack
 .text.A_SPosAttack
                0x00024fc0      0x12e /tmp/ccWJ2D8E.ltrans16.ltrans.o
                0x00024fc0                _A_SPosAttack
 .text.A_PosAttack
                0x000250ee      0x114 /tmp/ccWJ2D8E.ltrans16.ltrans.o
                0x000250ee                _A_PosAttack
 .text.A_KeenDie
                0x00025202       0x6a /tmp/ccWJ2D8E.ltrans16.ltrans.o
                0x00025202                _A_KeenDie
 .text.P_NewChaseDir
                0x0002526c      0x224 /tmp/ccWJ2D8E.ltrans16.ltrans.o
 .text.P_LookForPlayers
                0x00025490      0x130 /tmp/ccWJ2D8E.ltrans16.ltrans.o
                0x00025490                _P_LookForPlayers
 .text.A_Chase  0x000255c0      0x4f6 /tmp/ccWJ2D8E.ltrans16.ltrans.o
                0x000255c0                _A_Chase
 .text.A_VileChase
                0x00025ab6      0x1de /tmp/ccWJ2D8E.ltrans16.ltrans.o
                0x00025ab6                _A_VileChase
 .text.A_Look   0x00025c94      0x13c /tmp/ccWJ2D8E.ltrans16.ltrans.o
                0x00025c94                _A_Look
 .text.A_Light2
                0x00025dd0        0xc /tmp/ccWJ2D8E.ltrans17.ltrans.o
                0x00025dd0                _A_Light2
 .text.A_Light1
                0x00025ddc        0xc /tmp/ccWJ2D8E.ltrans17.ltrans.o
                0x00025ddc                _A_Light1
 .text.A_Light0
                0x00025de8        0xa /tmp/ccWJ2D8E.ltrans17.ltrans.o
                0x00025de8                _A_Light0
 .text.A_Raise  0x00025df2       0x4c /tmp/ccWJ2D8E.ltrans17.ltrans.o
                0x00025df2                _A_Raise
 .text.A_Lower  0x00025e3e       0xfe /tmp/ccWJ2D8E.ltrans17.ltrans.o
                0x00025e3e                _A_Lower
 .text.A_CheckReload
                0x00025f3c      0x252 /tmp/ccWJ2D8E.ltrans17.ltrans.o
                0x00025f3c                _A_CheckReload
 .text.A_FireCGun
                0x0002618e      0x27a /tmp/ccWJ2D8E.ltrans17.ltrans.o
                0x0002618e                _A_FireCGun
 .text.A_FireShotgun2
                0x00026408      0x314 /tmp/ccWJ2D8E.ltrans17.ltrans.o
                0x00026408                _A_FireShotgun2
 .text.A_FireShotgun
                0x0002671c      0x33e /tmp/ccWJ2D8E.ltrans17.ltrans.o
                0x0002671c                _A_FireShotgun
 .text.A_FirePistol
                0x00026a5a      0x238 /tmp/ccWJ2D8E.ltrans17.ltrans.o
                0x00026a5a                _A_FirePistol
 .text.A_FirePlasma
                0x00026c92       0xea /tmp/ccWJ2D8E.ltrans17.ltrans.o
                0x00026c92                _A_FirePlasma
 .text.A_FireBFG
                0x00026d7c       0x30 /tmp/ccWJ2D8E.ltrans17.ltrans.o
                0x00026d7c                _A_FireBFG
 .text.A_FireMissile
                0x00026dac       0x2e /tmp/ccWJ2D8E.ltrans17.ltrans.o
                0x00026dac                _A_FireMissile
 .text.A_GunFlash
                0x00026dda       0xfe /tmp/ccWJ2D8E.ltrans17.ltrans.o
                0x00026dda                _A_GunFlash
 .text.A_Saw    0x00026ed8      0x240 /tmp/ccWJ2D8E.ltrans17.ltrans.o
                0x00026ed8                _A_Saw
 .text.A_Punch  0x00027118      0x1ca /tmp/ccWJ2D8E.ltrans17.ltrans.o
                0x00027118                _A_Punch
 .text.P_CheckAmmo
                0x000272e2      0x1ca /tmp/ccWJ2D8E.ltrans17.ltrans.o
                0x000272e2                _P_CheckAmmo
 .text.A_WeaponReady
                0x000274ac      0x2fc /tmp/ccWJ2D8E.ltrans17.ltrans.o
                0x000274ac                _A_WeaponReady
 .text.A_ReFire
                0x000277a8       0xaa /tmp/ccWJ2D8E.ltrans17.ltrans.o
                0x000277a8                _A_ReFire
 .text.WI_drawTime.constprop.17
                0x00027852      0x4a6 /tmp/ccWJ2D8E.ltrans18.ltrans.o
                0x00027852                _WI_drawTime.constprop.17
 .text.EV_DoLockedDoor.constprop.9
                0x00027cf8       0xf4 /tmp/ccWJ2D8E.ltrans18.ltrans.o
                0x00027cf8                _EV_DoLockedDoor.constprop.9
 .text.P_AimLineAttack.constprop.5
                0x00027dec       0xac /tmp/ccWJ2D8E.ltrans18.ltrans.o
                0x00027dec                _P_AimLineAttack.constprop.5
 .text.P_InterceptVector.constprop.2
                0x00027e98       0x98 /tmp/ccWJ2D8E.ltrans18.ltrans.o
                0x00027e98                _P_InterceptVector.constprop.2
 .text.BM_E_DumpHeap
                0x00027f30        0x2 /tmp/ccWJ2D8E.ltrans18.ltrans.o
                0x00027f30                _BM_E_DumpHeap
 .text.BM_E_PrecacheProgress
                0x00027f32       0x1a /tmp/ccWJ2D8E.ltrans18.ltrans.o
                0x00027f32                _BM_E_PrecacheProgress
 .text.BM_E_DrawDiskIcon
                0x00027f4c       0x60 /tmp/ccWJ2D8E.ltrans18.ltrans.o
                0x00027f4c                _BM_E_DrawDiskIcon
 .text.BM_S_AppEntryPoint
                0x00027fac      0x112 /tmp/ccWJ2D8E.ltrans18.ltrans.o
                0x00027fac                _BM_S_AppEntryPoint
 .text.S_StopChannel
                0x000280be       0x9e /tmp/ccWJ2D8E.ltrans18.ltrans.o
                0x000280be                _S_StopChannel
 .text.S_ChangeMusic
                0x0002815c       0xa4 /tmp/ccWJ2D8E.ltrans18.ltrans.o
                0x0002815c                _S_ChangeMusic
 .text.R_PointToAngle.lto_priv.102.lto_priv.131
                0x00028200      0x254 /tmp/ccWJ2D8E.ltrans18.ltrans.o
                0x00028200                _R_PointToAngle.lto_priv.106.lto_priv.151
                0x00028200                _R_PointToAngle.lto_priv.102.lto_priv.131
                0x00028200                _R_PointToAngle.lto_priv.105.lto_priv.155
                0x00028200                _R_PointToAngle.lto_priv.108.lto_priv.232
                0x00028200                _R_PointToAngle.lto_priv.107.lto_priv.127
                0x00028200                _R_PointToAngle.lto_priv.103.lto_priv.157
                0x00028200                _R_PointToAngle.lto_priv.104.lto_priv.154
 .text.S_AdjustSoundParams
                0x00028454      0x1dc /tmp/ccWJ2D8E.ltrans18.ltrans.o
                0x00028454                _S_AdjustSoundParams
 .text.S_StartSoundAtVolume
                0x00028630      0x4e2 /tmp/ccWJ2D8E.ltrans18.ltrans.o
                0x00028630                _S_StartSoundAtVolume
 .text.S_StartSound
                0x00028b12       0x1a /tmp/ccWJ2D8E.ltrans18.ltrans.o
                0x00028b12                _S_StartSound
 .text.HUlib_eraseTextLine
                0x00028b2c       0x12 /tmp/ccWJ2D8E.ltrans18.ltrans.o
                0x00028b2c                _HUlib_eraseTextLine
 .text.HUlib_drawTextLine
                0x00028b3e       0xd4 /tmp/ccWJ2D8E.ltrans18.ltrans.o
                0x00028b3e                _HUlib_drawTextLine
 .text.ST_Responder.part.1
                0x00028c12      0x6a8 /tmp/ccWJ2D8E.ltrans18.ltrans.o
                0x00028c12                _ST_Responder.part.1
 .text.P_MobjThinker
                0x000292ba      0x1a0 /tmp/ccWJ2D8E.ltrans19.ltrans.o
                0x000292ba                _P_MobjThinker
 .text.P_RemoveMobj
                0x0002945a       0xdc /tmp/ccWJ2D8E.ltrans19.ltrans.o
                0x0002945a                _P_RemoveMobj
 .text.T_MallocPopulateFreeList
                0x00029536       0x44 /tmp/ccWJ2D8E.ltrans19.ltrans.o
                0x00029536                _T_MallocPopulateFreeList
 .text.P_SpawnMobj
                0x0002957a      0x1c2 /tmp/ccWJ2D8E.ltrans19.ltrans.o
                0x0002957a                _P_SpawnMobj
 .text.EV_Teleport
                0x0002973c      0x16a /tmp/ccWJ2D8E.ltrans19.ltrans.o
                0x0002973c                _EV_Teleport
 .text.P_SpawnPuff
                0x000298a6       0xc0 /tmp/ccWJ2D8E.ltrans19.ltrans.o
                0x000298a6                _P_SpawnPuff
 .text.P_SpawnPlayer
                0x00029966      0xc02 /tmp/ccWJ2D8E.ltrans19.ltrans.o
                0x00029966                _P_SpawnPlayer
 .text.P_PurgeThinkerPool
                0x0002a568        0x8 /tmp/ccWJ2D8E.ltrans19.ltrans.o
                0x0002a568                _P_PurgeThinkerPool
 .text.P_SpawnPlayerMissile
                0x0002a570      0x2c4 /tmp/ccWJ2D8E.ltrans19.ltrans.o
                0x0002a570                _P_SpawnPlayerMissile
 .text.P_SpawnMissile
                0x0002a834      0x4f6 /tmp/ccWJ2D8E.ltrans19.ltrans.o
                0x0002a834                _P_SpawnMissile
 .text.M_SizeDisplay
                0x0002ad2a       0xbe /tmp/ccWJ2D8E.ltrans20.ltrans.o
                0x0002ad2a                _M_SizeDisplay
 .text.M_ChangeDetail
                0x0002ade8       0x32 /tmp/ccWJ2D8E.ltrans20.ltrans.o
 .text.M_ChangeSensitivity
                0x0002ae1a       0x36 /tmp/ccWJ2D8E.ltrans20.ltrans.o
 .text.M_FinishReadThis
                0x0002ae50       0x16 /tmp/ccWJ2D8E.ltrans20.ltrans.o
                0x0002ae50                _M_FinishReadThis
 .text.M_ReadThis2
                0x0002ae66       0x16 /tmp/ccWJ2D8E.ltrans20.ltrans.o
 .text.M_ReadThis
                0x0002ae7c       0x16 /tmp/ccWJ2D8E.ltrans20.ltrans.o
 .text.M_EndGame
                0x0002ae92       0x90 /tmp/ccWJ2D8E.ltrans20.ltrans.o
                0x0002ae92                _M_EndGame
 .text.M_ChangeMessages
                0x0002af22       0x60 /tmp/ccWJ2D8E.ltrans20.ltrans.o
 .text.M_Options
                0x0002af82       0x16 /tmp/ccWJ2D8E.ltrans20.ltrans.o
 .text.M_ChooseSkill
                0x0002af98       0x92 /tmp/ccWJ2D8E.ltrans20.ltrans.o
 .text.M_VerifyNightmare
                0x0002b02a       0x48 /tmp/ccWJ2D8E.ltrans20.ltrans.o
 .text.M_NewGame
                0x0002b072       0x8a /tmp/ccWJ2D8E.ltrans20.ltrans.o
 .text.M_SfxVol
                0x0002b0fc       0x5a /tmp/ccWJ2D8E.ltrans20.ltrans.o
                0x0002b0fc                _M_SfxVol
 .text.M_Episode
                0x0002b156       0xbc /tmp/ccWJ2D8E.ltrans20.ltrans.o
 .text.M_QuitDOOM
                0x0002b212       0xf4 /tmp/ccWJ2D8E.ltrans20.ltrans.o
 .text.M_QuitResponse
                0x0002b306      0x2ec /tmp/ccWJ2D8E.ltrans20.ltrans.o
 .text.M_EndGameResponse
                0x0002b5f2       0xc8 /tmp/ccWJ2D8E.ltrans20.ltrans.o
 .text.M_DrawEpisode
                0x0002b6ba       0x54 /tmp/ccWJ2D8E.ltrans20.ltrans.o
 .text.M_DrawNewGame
                0x0002b70e       0xa6 /tmp/ccWJ2D8E.ltrans20.ltrans.o
 .text.M_DrawMainMenu
                0x0002b7b4       0x54 /tmp/ccWJ2D8E.ltrans20.ltrans.o
 .text.M_DrawOptions
                0x0002b808      0x32e /tmp/ccWJ2D8E.ltrans20.ltrans.o
 .text.M_MusicVol
                0x0002bb36       0x66 /tmp/ccWJ2D8E.ltrans20.ltrans.o
                0x0002bb36                _M_MusicVol
 .text.AM_minOutWindowScale.lto_priv.231
                0x0002bb9c       0xda /tmp/ccWJ2D8E.ltrans20.ltrans.o
                0x0002bb9c                _AM_minOutWindowScale.lto_priv.231
 .text.AM_activateNewScale.lto_priv.230
                0x0002bc76       0x96 /tmp/ccWJ2D8E.ltrans20.ltrans.o
                0x0002bc76                _AM_activateNewScale.lto_priv.230
 .text.AM_unloadPics.lto_priv.158
                0x0002bd0c       0x96 /tmp/ccWJ2D8E.ltrans20.ltrans.o
                0x0002bd0c                _AM_unloadPics.lto_priv.158
 .text.AM_changeWindowLoc.lto_priv.229
                0x0002bda2       0xc0 /tmp/ccWJ2D8E.ltrans20.ltrans.o
                0x0002bda2                _AM_changeWindowLoc.lto_priv.229
 .text.cht_CheckCheat
                0x0002be62       0xee /tmp/ccWJ2D8E.ltrans20.ltrans.o
                0x0002be62                _cht_CheckCheat
 .text.M_CheckParm
                0x0002bf50       0x40 /tmp/ccWJ2D8E.ltrans20.ltrans.o
                0x0002bf50                _M_CheckParm
 .text.M_Drawer
                0x0002bf90      0x3e8 /tmp/ccWJ2D8E.ltrans20.ltrans.o
                0x0002bf90                _M_Drawer
 .text.M_Sound  0x0002c378       0x16 /tmp/ccWJ2D8E.ltrans21.ltrans.o
                0x0002c378                _M_Sound
 .text.M_DrawReadThis2
                0x0002c38e       0x8c /tmp/ccWJ2D8E.ltrans21.ltrans.o
                0x0002c38e                _M_DrawReadThis2
 .text.M_DrawReadThis1
                0x0002c41a       0x90 /tmp/ccWJ2D8E.ltrans21.ltrans.o
                0x0002c41a                _M_DrawReadThis1
 .text.M_DrawSound
                0x0002c4aa      0x2b8 /tmp/ccWJ2D8E.ltrans21.ltrans.o
 .text.M_SaveGame
                0x0002c762      0x192 /tmp/ccWJ2D8E.ltrans21.ltrans.o
                0x0002c762                _M_SaveGame
 .text.M_SaveSelect
                0x0002c8f4       0x68 /tmp/ccWJ2D8E.ltrans21.ltrans.o
 .text.M_LoadSelect
                0x0002c95c       0xa6 /tmp/ccWJ2D8E.ltrans21.ltrans.o
 .text.M_DrawSave
                0x0002ca02      0x3f4 /tmp/ccWJ2D8E.ltrans21.ltrans.o
 .text.M_DrawLoad
                0x0002cdf6      0x324 /tmp/ccWJ2D8E.ltrans21.ltrans.o
 .text.M_LoadGame
                0x0002d11a      0x1a2 /tmp/ccWJ2D8E.ltrans21.ltrans.o
                0x0002d11a                _M_LoadGame
 .text.G_CheckDemoStatus
                0x0002d2bc      0x2ca /tmp/ccWJ2D8E.ltrans21.ltrans.o
                0x0002d2bc                _G_CheckDemoStatus
 .text.G_ReadDemoTiccmd
                0x0002d586       0x56 /tmp/ccWJ2D8E.ltrans21.ltrans.o
                0x0002d586                _G_ReadDemoTiccmd
 .text.G_InitNew
                0x0002d5dc      0x3f6 /tmp/ccWJ2D8E.ltrans21.ltrans.o
                0x0002d5dc                _G_InitNew
 .text.G_SecretExitLevel
                0x0002d9d2       0x3e /tmp/ccWJ2D8E.ltrans21.ltrans.o
                0x0002d9d2                _G_SecretExitLevel
 .text.audio_mux_frame
                0x0002da10     0x1d22 /tmp/ccWJ2D8E.ltrans22.ltrans.o
                0x0002da10                _audio_mux_frame
 .text.ST_Responder
                0x0002f732       0x42 /tmp/ccWJ2D8E.ltrans23.ltrans.o
                0x0002f732                _ST_Responder
 .text.V_DrawPatch320
                0x0002f774      0x12a /tmp/ccWJ2D8E.ltrans23.ltrans.o
                0x0002f774                _V_DrawPatch320
 .text.STlib_updateMultIcon.part.1
                0x0002f89e       0xe0 /tmp/ccWJ2D8E.ltrans23.ltrans.o
 .text.STlib_drawNum
                0x0002f97e      0x1ae /tmp/ccWJ2D8E.ltrans23.ltrans.o
 .text.ST_drawWidgets
                0x0002fb2c      0x51a /tmp/ccWJ2D8E.ltrans23.ltrans.o
                0x0002fb2c                _ST_drawWidgets
 .text.V_DrawPatch
                0x00030046      0x134 /tmp/ccWJ2D8E.ltrans23.ltrans.o
                0x00030046                _V_DrawPatch
 .text.WI_drawPercent.part.3
                0x0003017a      0x10e /tmp/ccWJ2D8E.ltrans23.ltrans.o
                0x0003017a                _WI_drawPercent.part.3
 .text.WI_updateAnimatedBack.part.1
                0x00030288      0x136 /tmp/ccWJ2D8E.ltrans23.ltrans.o
                0x00030288                _WI_updateAnimatedBack.part.1
 .text.WI_initAnimatedBack.part.0
                0x000303be       0xbc /tmp/ccWJ2D8E.ltrans23.ltrans.o
                0x000303be                _WI_initAnimatedBack.part.0
 .text.WI_unloadData
                0x0003047a      0xab6 /tmp/ccWJ2D8E.ltrans23.ltrans.o
                0x0003047a                _WI_unloadData
 .text.P_ExplodeMissile
                0x00030f30      0x126 /tmp/ccWJ2D8E.ltrans24.ltrans.o
                0x00030f30                _P_ExplodeMissile
 .text.P_ZMovement
                0x00031056      0x20c /tmp/ccWJ2D8E.ltrans24.ltrans.o
                0x00031056                _P_ZMovement
 .text.R_PointInSubsector.lto_priv.128.lto_priv.132
                0x00031262      0x20a /tmp/ccWJ2D8E.ltrans24.ltrans.o
                0x00031262                _R_PointInSubsector.lto_priv.152.lto_priv.156
                0x00031262                _R_PointInSubsector.lto_priv.150
                0x00031262                _R_PointInSubsector.lto_priv.128.lto_priv.132
                0x00031262                _R_PointInSubsector.lto_priv.153.lto_priv.233
                0x00031262                _R_PointInSubsector.lto_priv.129.lto_priv.130
 .text.P_NightmareRespawn
                0x0003146c       0xfe /tmp/ccWJ2D8E.ltrans24.ltrans.o
                0x0003146c                _P_NightmareRespawn
 .text.P_SetMobjState
                0x0003156a       0x7e /tmp/ccWJ2D8E.ltrans24.ltrans.o
                0x0003156a                _P_SetMobjState
 .text.P_XYMovement
                0x000315e8     0x137e /tmp/ccWJ2D8E.ltrans24.ltrans.o
                0x000315e8                _P_XYMovement
 .text.remap_map09
                0x00032966       0x66 /tmp/ccWJ2D8E.ltrans25.ltrans.o
 .text.PacketGet
                0x000329cc      0x574 /tmp/ccWJ2D8E.ltrans25.ltrans.o
                0x000329cc                _PacketGet
 .text.PacketSend
                0x00032f40      0x430 /tmp/ccWJ2D8E.ltrans25.ltrans.o
                0x00032f40                _PacketSend
 .text.BM_S_BMMLoad
                0x00033370     0x13ce /tmp/ccWJ2D8E.ltrans25.ltrans.o
 .text.F_StartFinale
                0x0003473e      0x1c2 /tmp/ccWJ2D8E.ltrans25.ltrans.o
                0x0003473e                _F_StartFinale
 .text.I_ProcessMouseEvents
                0x00034900      0x14e /tmp/ccWJ2D8E.ltrans25.ltrans.o
                0x00034900                _I_ProcessMouseEvents
 .text.I_ProcessKeyEvents
                0x00034a4e      0x35e /tmp/ccWJ2D8E.ltrans25.ltrans.o
                0x00034a4e                _I_ProcessKeyEvents
 .text.set_active_videoprofile
                0x00034dac       0x64 /tmp/ccWJ2D8E.ltrans25.ltrans.o
                0x00034dac                _set_active_videoprofile
 .text.I_FinishUpdate
                0x00034e10      0x25a /tmp/ccWJ2D8E.ltrans25.ltrans.o
                0x00034e10                _I_FinishUpdate
 .text.I_RegisterSong
                0x0003506a       0x2e /tmp/ccWJ2D8E.ltrans25.ltrans.o
                0x0003506a                _I_RegisterSong
 .text.I_SetMusicVolume
                0x00035098       0x20 /tmp/ccWJ2D8E.ltrans25.ltrans.o
                0x00035098                _I_SetMusicVolume
 .text.I_PlaySong
                0x000350b8       0x44 /tmp/ccWJ2D8E.ltrans25.ltrans.o
                0x000350b8                _I_PlaySong
 .text.P_UnsetThingPosition
                0x000350fc       0xaa /tmp/ccWJ2D8E.ltrans26.ltrans.o
                0x000350fc                _P_UnsetThingPosition
 .text.P_TryMove.part.7
                0x000351a6      0x200 /tmp/ccWJ2D8E.ltrans26.ltrans.o
                0x000351a6                _P_TryMove.part.7
 .text.P_CheckPosition.part.6
                0x000353a6      0xd48 /tmp/ccWJ2D8E.ltrans26.ltrans.o
                0x000353a6                _P_CheckPosition.part.6
 .text.T_VerticalDoor
                0x000360ee      0x1ea /tmp/ccWJ2D8E.ltrans27.ltrans.o
                0x000360ee                _T_VerticalDoor
 .text.T_MoveCeiling
                0x000362d8      0x1dc /tmp/ccWJ2D8E.ltrans27.ltrans.o
                0x000362d8                _T_MoveCeiling
 .text.P_CheckMeleeRange
                0x000364b4       0x74 /tmp/ccWJ2D8E.ltrans27.ltrans.o
                0x000364b4                _P_CheckMeleeRange
 .text.P_RecursiveSound
                0x00036528      0x12a /tmp/ccWJ2D8E.ltrans27.ltrans.o
                0x00036528                _P_RecursiveSound
 .text.EV_DoDoor
                0x00036652      0x240 /tmp/ccWJ2D8E.ltrans27.ltrans.o
                0x00036652                _EV_DoDoor
 .text.EV_CeilingCrushStop
                0x00036892       0x4c /tmp/ccWJ2D8E.ltrans27.ltrans.o
                0x00036892                _EV_CeilingCrushStop
 .text.EV_DoCeiling
                0x000368de      0x254 /tmp/ccWJ2D8E.ltrans27.ltrans.o
                0x000368de                _EV_DoCeiling
 .text.P_TryWalk
                0x00036b32      0x212 /tmp/ccWJ2D8E.ltrans27.ltrans.o
                0x00036b32                _P_TryWalk
 .text.Z_ChangeTag2.constprop.89
                0x00036d44       0x54 /tmp/ccWJ2D8E.ltrans28.ltrans.o
                0x00036d44                _Z_ChangeTag2.constprop.89
 .text.S_StartSound.constprop.86
                0x00036d98      0x3ce /tmp/ccWJ2D8E.ltrans28.ltrans.o
                0x00036d98                _S_StartSound.constprop.86
 .text.I_StopSong.constprop.84
                0x00037166       0x3c /tmp/ccWJ2D8E.ltrans28.ltrans.o
                0x00037166                _I_StopSong.constprop.84
 .text.V_DrawPatch.constprop.81
                0x000371a2      0x12a /tmp/ccWJ2D8E.ltrans28.ltrans.o
                0x000371a2                _V_DrawPatch.constprop.81
 .text.W_CacheLumpName.constprop.79
                0x000372cc       0x32 /tmp/ccWJ2D8E.ltrans28.ltrans.o
                0x000372cc                _W_CacheLumpName.constprop.79
 .text.W_CacheLumpName.constprop.78
                0x000372fe       0x32 /tmp/ccWJ2D8E.ltrans28.ltrans.o
                0x000372fe                _W_CacheLumpName.constprop.78
 .text.fDSP_ALGO_P_LoadRay.constprop.66
                0x00037330       0x4c /tmp/ccWJ2D8E.ltrans28.ltrans.o
                0x00037330                _fDSP_ALGO_P_LoadRay.constprop.66
 .text.G_DeathMatchSpawnPlayer
                0x0003737c      0x83a /tmp/ccWJ2D8E.ltrans29.ltrans.o
                0x0003737c                _G_DeathMatchSpawnPlayer
 .text.G_CheckSpot
                0x00037bb6      0x1e0 /tmp/ccWJ2D8E.ltrans29.ltrans.o
                0x00037bb6                _G_CheckSpot
 .text.G_BuildTiccmd
                0x00037d96      0x5aa /tmp/ccWJ2D8E.ltrans30.ltrans.o
                0x00037d96                _G_BuildTiccmd
 .text.D_AddFile
                0x00038340       0x7a /tmp/ccWJ2D8E.ltrans31.ltrans.o
                0x00038340                _D_AddFile
 .text.D_DoAdvanceDemo
                0x000383ba      0x26e /tmp/ccWJ2D8E.ltrans31.ltrans.o
                0x000383ba                _D_DoAdvanceDemo
 .text          0x00038628       0x14 /usr/m68k-ataribrown-elf/lib/m68020/softfp/libc.a(checkcpu.o)
                0x00038628                __checkcpu
 .text          0x0003863c      0x6fa /usr/m68k-ataribrown-elf/lib/m68020/softfp/libc.a(crtinit.o)
                0x0003863c                __acc_main
                0x0003874e                __crtinit
 *fill*         0x00038d36        0x2 4e714e71
 .text          0x00038d38       0x6a /usr/m68k-ataribrown-elf/lib/m68020/softfp/libc.a(getenv.o)
                0x00038d38                _getenv
 *fill*         0x00038da2        0x2 4e714e71
 .text          0x00038da4      0x67c /usr/m68k-ataribrown-elf/lib/m68020/softfp/libc.a(main.o)
                0x00038e42                __main
                0x00038e42                ___libc_main
 .text          0x00039420      0x4be /usr/m68k-ataribrown-elf/lib/m68020/softfp/libc.a(malloc.o)
                0x00039420                ___mallocChunkSize
                0x00039420                __mallocChunkSize
                0x00039432                __malloczero
                0x00039432                ___malloczero
                0x0003943c                _malloc
                0x0003943c                ___malloc
                0x0003961a                _free
                0x0003961a                ___free
 *fill*         0x000398de        0x2 4e714e71
 .text          0x000398e0      0x14a /usr/m68k-ataribrown-elf/lib/m68020/softfp/libc.a(realloc.o)
                0x000398e0                ___realloc
                0x000398e0                _realloc
 *fill*         0x00039a2a        0x2 4e714e71
 .text          0x00039a2c        0xc /usr/m68k-ataribrown-elf/lib/m68020/softfp/libc.a(setstack.o)
                0x00039a2c                __setstack
 .text          0x00039a38      0x478 /usr/m68k-ataribrown-elf/lib/m68020/softfp/libc.a(unx2dos.o)
                0x00039a38                __unx2dos
                0x00039c38                __dos2unx
                0x00039d64                _unx2dos
                0x00039d7a                _dos2unx
                0x00039d90                __path_unx2dos
                0x00039e16                __path_dos2unx
 .text          0x00039eb0       0x20 /usr/m68k-ataribrown-elf/lib/m68020/softfp/libc.a(initsig.o)
                0x00039eb0                __init_signal
 .text          0x00039ed0       0xa2 /usr/m68k-ataribrown-elf/lib/m68020/softfp/libc.a(binmode.o)
                0x00039ed0                __binmode
                0x00039ed0                ___binmode
                0x00039eea                ___set_binmode
 *fill*         0x00039f72        0x2 4e714e71
 .text          0x00039f74       0xe4 /usr/m68k-ataribrown-elf/lib/m68020/softfp/libc.a(fclose.o)
                0x00039f74                _fclose
 .text          0x0003a058       0xce /usr/m68k-ataribrown-elf/lib/m68020/softfp/libc.a(fflush.o)
                0x0003a058                _fflush
                0x0003a058                _fflush_unlocked
 *fill*         0x0003a126        0x2 4e714e71
 .text          0x0003a128      0x210 /usr/m68k-ataribrown-elf/lib/m68020/softfp/libc.a(fgets.o)
                0x0003a128                _fgets_unlocked
                0x0003a128                _fgets
 .text          0x0003a338       0x66 /usr/m68k-ataribrown-elf/lib/m68020/softfp/libc.a(fileno.o)
                0x0003a338                _fileno
                0x0003a338                _fileno_unlocked
 *fill*         0x0003a39e        0x2 4e714e71
 .text          0x0003a3a0      0x150 /usr/m68k-ataribrown-elf/lib/m68020/softfp/libc.a(fopen.o)
                0x0003a3a0                ___getmode
                0x0003a454                _fopen
 .text          0x0003a4f0      0x1fc /usr/m68k-ataribrown-elf/lib/m68020/softfp/libc.a(fread.o)
                0x0003a4f0                _fread
                0x0003a4f0                _fread_unlocked
 .text          0x0003a6ec      0x178 /usr/m68k-ataribrown-elf/lib/m68020/softfp/libc.a(fseek.o)
                0x0003a6ec                _fseek
                0x0003a860                _fseeko
 .text          0x0003a864       0x7c /usr/m68k-ataribrown-elf/lib/m68020/softfp/libc.a(ftell.o)
                0x0003a864                _ftell
                0x0003a8de                _ftello
 .text          0x0003a8e0       0x2c /usr/m68k-ataribrown-elf/lib/m68020/softfp/libc.a(getchar.o)
                0x0003a8e0                _getchar_unlocked
                0x0003a8e0                _getchar
 .text          0x0003a90c      0xb72 /usr/m68k-ataribrown-elf/lib/m68020/softfp/libc.a(internals.o)
                0x0003aa60                ___stdio_check_funcs
                0x0003aafc                ___stdio_check_offset
                0x0003b112                ___flshfp
                0x0003b294                ___fillbf
                0x0003b456                ___invalidate
 *fill*         0x0003b47e        0x2 4e714e71
 .text          0x0003b480       0x74 /usr/m68k-ataribrown-elf/lib/m68020/softfp/libc.a(newstream.o)
                0x0003b480                ___newstream
 .text          0x0003b4f4       0x3a /usr/m68k-ataribrown-elf/lib/m68020/softfp/libc.a(setbuf.o)
                0x0003b4f4                _setbuf
 *fill*         0x0003b52e        0x2 4e714e71
 .text          0x0003b530      0x11c /usr/m68k-ataribrown-elf/lib/m68020/softfp/libc.a(setvbuf.o)
                0x0003b530                _setvbuf
 .text          0x0003b64c       0x84 /usr/m68k-ataribrown-elf/lib/m68020/softfp/libc.a(stdio_init.o)
                0x0003b64c                ___stdio_init_stream
 .text          0x0003b6d0      0x394 /usr/m68k-ataribrown-elf/lib/m68020/softfp/libc.a(sysd-stdio.o)
                0x0003b6d0                ___stdio_close
                0x0003b6d6                ___stdio_read
                0x0003b6dc                ___stdio_text_read
                0x0003b7ec                ___stdio_write
                0x0003b83a                ___stdio_text_write
                0x0003b920                ___stdio_seek
                0x0003b94c                ___stdio_fileno
                0x0003b952                ___stdio_open
                0x0003b9d0                ___stdio_reopen
 .text          0x0003ba64       0x16 /usr/m68k-ataribrown-elf/lib/m68020/softfp/libc.a(atoi.o)
                0x0003ba64                _atoi
 *fill*         0x0003ba7a        0x2 4e714e71
 .text          0x0003ba7c       0x3c /usr/m68k-ataribrown-elf/lib/m68020/softfp/libc.a(exit.o)
                0x0003ba7c                ___exit
                0x0003ba7c                _exit
 .text          0x0003bab8      0x2d4 /usr/m68k-ataribrown-elf/lib/m68020/softfp/libc.a(strtol.o)
                0x0003bd40                ___strtol_internal
                0x0003bd66                _strtol
 .text          0x0003bd8c      0x1c4 /usr/m68k-ataribrown-elf/lib/m68020/softfp/libc.a(bcopy.o)
                0x0003bd8c                _memcpy
                0x0003bd8c                _memmove
                0x0003bd96                ___bcopy
                0x0003bd96                _bcopy
                0x0003bd96                __bcopy
 .text          0x0003bf50       0xa8 /usr/m68k-ataribrown-elf/lib/m68020/softfp/libc.a(bzero.o)
                0x0003bf50                _bzero
                0x0003bf50                __bzero
                0x0003bf50                ___bzero
 .text          0x0003bff8       0x32 /usr/m68k-ataribrown-elf/lib/m68020/softfp/libc.a(memccpy.o)
                0x0003bff8                _memccpy
                0x0003bff8                ___memccpy
 *fill*         0x0003c02a        0x2 4e714e71
 .text          0x0003c02c       0xaa /usr/m68k-ataribrown-elf/lib/m68020/softfp/libc.a(memset.o)
                0x0003c02c                _memset
 *fill*         0x0003c0d6        0x2 4e714e71
 .text          0x0003c0d8       0x34 /usr/m68k-ataribrown-elf/lib/m68020/softfp/libc.a(strcmp.o)
                0x0003c0d8                _strcmp
 .text          0x0003c10c      0x136 /usr/m68k-ataribrown-elf/lib/m68020/softfp/libc.a(strerror.o)
                0x0003c10c                _strerror
 *fill*         0x0003c242        0x2 4e714e71
 .text          0x0003c244       0x1c /usr/m68k-ataribrown-elf/lib/m68020/softfp/libc.a(strlen.o)
                0x0003c244                _strlen
 .text          0x0003c260       0x44 /usr/m68k-ataribrown-elf/lib/m68020/softfp/libc.a(strncat.o)
                0x0003c260                _strncat
 .text          0x0003c2a4       0x4a /usr/m68k-ataribrown-elf/lib/m68020/softfp/libc.a(strncmp.o)
                0x0003c2a4                _strncmp
 *fill*         0x0003c2ee        0x2 4e714e71
 .text          0x0003c2f0       0x36 /usr/m68k-ataribrown-elf/lib/m68020/softfp/libc.a(strncpy.o)
                0x0003c2f0                _strncpy
 *fill*         0x0003c326        0x2 4e714e71
 .text          0x0003c328       0x32 /usr/m68k-ataribrown-elf/lib/m68020/softfp/libc.a(strrchr.o)
                0x0003c328                _rindex
                0x0003c328                _strrchr
 *fill*         0x0003c35a        0x2 4e714e71
 .text          0x0003c35c       0x4a /usr/m68k-ataribrown-elf/lib/m68020/softfp/libc.a(strupr.o)
                0x0003c35c                _strupr
 *fill*         0x0003c3a6        0x2 4e714e71
 .text          0x0003c3a8       0xec /usr/m68k-ataribrown-elf/lib/m68020/softfp/libc.a(access.o)
                0x0003c3a8                _access
                0x0003c3a8                ___access
 .text          0x0003c494       0x58 /usr/m68k-ataribrown-elf/lib/m68020/softfp/libc.a(close.o)
                0x0003c494                ___close
                0x0003c494                _close
 .text          0x0003c4ec       0xd8 /usr/m68k-ataribrown-elf/lib/m68020/softfp/libc.a(dup2.o)
                0x0003c4ec                _dup2
                0x0003c4ec                ___dup2
 .text          0x0003c5c4       0x18 /usr/m68k-ataribrown-elf/lib/m68020/softfp/libc.a(fstat.o)
                0x0003c5c4                _fstat
                0x0003c5c4                ___fstat
 .text          0x0003c5dc       0x32 /usr/m68k-ataribrown-elf/lib/m68020/softfp/libc.a(getgid.o)
                0x0003c5dc                _getgid
                0x0003c5dc                ___getgid
 *fill*         0x0003c60e        0x2 4e714e71
 .text          0x0003c610      0x13a /usr/m68k-ataribrown-elf/lib/m68020/softfp/libc.a(getgroups.o)
                0x0003c610                ___getgroups
                0x0003c610                _getgroups
 *fill*         0x0003c74a        0x2 4e714e71
 .text          0x0003c74c      0x154 /usr/m68k-ataribrown-elf/lib/m68020/softfp/libc.a(gethostname.o)
                0x0003c74c                _gethostname
                0x0003c74c                ___gethostname
 .text          0x0003c8a0       0x4e /usr/m68k-ataribrown-elf/lib/m68020/softfp/libc.a(getpagesize.o)
                0x0003c8a0                ___getpagesize
                0x0003c8a0                _getpagesize
 *fill*         0x0003c8ee        0x2 4e714e71
 .text          0x0003c8f0       0x26 /usr/m68k-ataribrown-elf/lib/m68020/softfp/libc.a(getuid.o)
                0x0003c8f0                _getuid
                0x0003c8f0                ___getuid
 *fill*         0x0003c916        0x2 4e714e71
 .text          0x0003c918      0x6c4 /usr/m68k-ataribrown-elf/lib/m68020/softfp/libc.a(ioctl.o)
                0x0003c918                ___ioctl
                0x0003c918                _ioctl
 .text          0x0003cfdc      0x13e /usr/m68k-ataribrown-elf/lib/m68020/softfp/libc.a(lseek.o)
                0x0003cfdc                ___lseek
                0x0003cfdc                _lseek
 *fill*         0x0003d11a        0x2 4e714e71
 .text          0x0003d11c      0x118 /usr/m68k-ataribrown-elf/lib/m68020/softfp/libc.a(mkdir.o)
                0x0003d11c                _mkdir
                0x0003d11c                ___mkdir
 .text          0x0003d234      0x8fa /usr/m68k-ataribrown-elf/lib/m68020/softfp/libc.a(open.o)
                0x0003d2e8                ___open_v
                0x0003db12                _open
                0x0003db12                ___open
 *fill*         0x0003db2e        0x2 4e714e71
 .text          0x0003db30      0x408 /usr/m68k-ataribrown-elf/lib/m68020/softfp/libc.a(read.o)
                0x0003db30                _read
                0x0003db30                ___read
 .text          0x0003df38       0x78 /usr/m68k-ataribrown-elf/lib/m68020/softfp/libc.a(sbrk.o)
                0x0003df38                _sbrk
                0x0003df38                ___sbrk
 .text          0x0003dfb0       0x16 /usr/m68k-ataribrown-elf/lib/m68020/softfp/libc.a(stat.o)
                0x0003dfb0                ___stat
                0x0003dfb0                _stat
 *fill*         0x0003dfc6        0x2 4e714e71
 .text          0x0003dfc8       0x4c /usr/m68k-ataribrown-elf/lib/m68020/softfp/libc.a(sysctl.o)
                0x0003dfc8                ___sysctl
                0x0003dfc8                _sysctl
 .text          0x0003e014      0x17e /usr/m68k-ataribrown-elf/lib/m68020/softfp/libc.a(write.o)
                0x0003e014                _write
                0x0003e014                ___write
 *fill*         0x0003e192        0x2 4e714e71
 .text          0x0003e194      0x13c /usr/m68k-ataribrown-elf/lib/m68020/softfp/libc.a(bind.o)
                0x0003e194                _bind
                0x0003e194                ___bind
 .text          0x0003e2d0     0x1752 /usr/m68k-ataribrown-elf/lib/m68020/softfp/libc.a(gethostnamadr.o)
                0x0003f11e                __sethtent
                0x0003f162                __endhtent
                0x0003f186                __gethtent
                0x0003f334                __gethtbyname
                0x0003f602                _gethostbyname
                0x0003f602                ___gethostbyname
                0x0003f7de                __gethtbyaddr
                0x0003f82e                _gethostbyaddr
                0x0003f82e                ___gethostbyaddr
 *fill*         0x0003fa22        0x2 4e714e71
 .text          0x0003fa24      0x1da /usr/m68k-ataribrown-elf/lib/m68020/softfp/libc.a(inet_addr.o)
                0x0003fa24                _inet_aton
                0x0003fbda                _inet_addr
 *fill*         0x0003fbfe        0x2 4e714e71
 .text          0x0003fc00      0x136 /usr/m68k-ataribrown-elf/lib/m68020/softfp/libc.a(recvfrom.o)
                0x0003fc00                ___recvfrom
                0x0003fc00                _recvfrom
 *fill*         0x0003fd36        0x2 4e714e71
 .text          0x0003fd38      0x3d4 /usr/m68k-ataribrown-elf/lib/m68020/softfp/libc.a(res_comp.o)
                0x0003fd38                _dn_expand
                0x0003fe32                _dn_comp
                0x00040042                ___dn_skipname
                0x000400a4                __getshort
                0x000400b4                __getlong
                0x000400d0                ___putshort
                0x000400e2                ___putlong
 .text          0x0004010c      0x4ac /usr/m68k-ataribrown-elf/lib/m68020/softfp/libc.a(res_query.o)
                0x0004010c                _res_query
                0x0004020c                _res_querydomain
                0x000402c0                ___hostalias
                0x00040414                _res_search
 .text          0x000405b8      0x842 /usr/m68k-ataribrown-elf/lib/m68020/softfp/libc.a(res_send.o)
                0x000405b8                _res_send
                0x00040dda                __res_close
 *fill*         0x00040dfa        0x2 4e714e71
 .text          0x00040dfc       0x9c /usr/m68k-ataribrown-elf/lib/m68020/softfp/libc.a(send.o)
                0x00040dfc                ___send
                0x00040dfc                _send
 .text          0x00040e98      0x13a /usr/m68k-ataribrown-elf/lib/m68020/softfp/libc.a(sendmsg.o)
                0x00040e98                _sendmsg
                0x00040e98                ___sendmsg
 *fill*         0x00040fd2        0x2 4e714e71
 .text          0x00040fd4      0x146 /usr/m68k-ataribrown-elf/lib/m68020/softfp/libc.a(sendto.o)
                0x00040fd4                _sendto
                0x00040fd4                ___sendto
 *fill*         0x0004111a        0x2 4e714e71
 .text          0x0004111c       0x4c /usr/m68k-ataribrown-elf/lib/m68020/softfp/libc.a(sncpy.o)
                0x0004111c                __sncpy
 .text          0x00041168       0xd8 /usr/m68k-ataribrown-elf/lib/m68020/softfp/libc.a(socket.o)
                0x00041168                _socket
                0x00041168                ___socket
 .text          0x00041240      0x162 /usr/m68k-ataribrown-elf/lib/m68020/softfp/libc.a(assert.o)
                0x00041240                ___assert_fail
 *fill*         0x000413a2        0x2 4e714e71
 .text          0x000413a4       0xa0 /usr/m68k-ataribrown-elf/lib/m68020/softfp/libc.a(console.o)
                0x000413a4                __console_read_byte
                0x00041418                __console_write_byte
 .text          0x00041444      0x440 /usr/m68k-ataribrown-elf/lib/m68020/softfp/libc.a(do_fstat.o)
                0x00041444                ___sys_fstat
                0x00041598                ___do_fstat
 .text          0x00041884      0x7a2 /usr/m68k-ataribrown-elf/lib/m68020/softfp/libc.a(do_stat.o)
                0x00041884                ___sys_stat
                0x000419c0                ___do_stat
 *fill*         0x00042026        0x2 4e714e71
 .text          0x00042028      0x132 /usr/m68k-ataribrown-elf/lib/m68020/softfp/libc.a(enoent.o)
                0x00042028                __enoent
 *fill*         0x0004215a        0x2 4e714e71
 .text          0x0004215c       0x7e /usr/m68k-ataribrown-elf/lib/m68020/softfp/libc.a(getcookie.o)
                0x0004215c                _Getcookie
 *fill*         0x000421da        0x2 4e714e71
 .text          0x000421dc       0x60 /usr/m68k-ataribrown-elf/lib/m68020/softfp/libc.a(getsysvar.o)
                0x000421dc                _get_sysvar
 .text          0x0004223c      0x11e /usr/m68k-ataribrown-elf/lib/m68020/softfp/libc.a(isatty.o)
                0x0004223c                ___isatty
                0x0004223c                _isatty
 *fill*         0x0004235a        0x2 4e714e71
 .text          0x0004235c       0xae /usr/m68k-ataribrown-elf/lib/m68020/softfp/libc.a(isctty.o)
                0x0004235c                __isctty
 *fill*         0x0004240a        0x2 4e714e71
 .text          0x0004240c       0x1a /usr/m68k-ataribrown-elf/lib/m68020/softfp/libc.a(libc_exit.o)
                0x0004240c                __exit
                0x0004240c                ___libc_exit
 *fill*         0x00042426        0x2 4e714e71
 .text          0x00042428      0x572 /usr/m68k-ataribrown-elf/lib/m68020/softfp/libc.a(quickstat.o)
                0x00042428                ___quickstat
 *fill*         0x0004299a        0x2 4e714e71
 .text          0x0004299c       0x54 /usr/m68k-ataribrown-elf/lib/m68020/softfp/libc.a(toxxx.o)
                0x0004299c                __toupper
                0x0004299c                _toupper
                0x000429c6                __tolower
                0x000429c6                _tolower
 .text          0x000429f0       0x62 /usr/m68k-ataribrown-elf/lib/m68020/softfp/libc.a(unixtime.o)
                0x000429f0                ___unixtime
 *fill*         0x00042a52        0x2 4e714e71
 .text          0x00042a54       0x16 /usr/m68k-ataribrown-elf/lib/m68020/softfp/libc.a(raise.o)
                0x00042a54                _gsignal
                0x00042a54                _raise
 *fill*         0x00042a6a        0x2 4e714e71
 .text          0x00042a6c       0x38 /usr/m68k-ataribrown-elf/lib/m68020/softfp/libc.a(getpwuid.o)
                0x00042a6c                _getpwuid
 .text          0x00042aa4       0x92 /usr/m68k-ataribrown-elf/lib/m68020/softfp/libc.a(getpwuid_r.o)
                0x00042aa4                _getpwuid_r
                0x00042aa4                ___getpwuid_r
 *fill*         0x00042b36        0x2 4e714e71
 .text          0x00042b38      0x254 /usr/m68k-ataribrown-elf/lib/m68020/softfp/libc.a(grp.o)
                0x00042b38                _setgrent
                0x00042cb0                _endgrent
                0x00042cca                _getgrent
                0x00042cf6                _getgrgid
                0x00042d28                _getgrnam
                0x00042d6a                _fgetgrent
 .text          0x00042d8c       0x56 /usr/m68k-ataribrown-elf/lib/m68020/softfp/libc.a(fcloseall.o)
                0x00042d8c                _fcloseall
                0x00042d8c                ___fcloseall
 *fill*         0x00042de2        0x2 4e714e71
 .text          0x00042de4       0x1e /usr/m68k-ataribrown-elf/lib/m68020/softfp/libc.a(fprintf.o)
                0x00042de4                _fprintf
 *fill*         0x00042e02        0x2 4e714e71
 .text          0x00042e04      0x352 /usr/m68k-ataribrown-elf/lib/m68020/softfp/libc.a(fwrite.o)
                0x00042e04                _fwrite_unlocked
                0x00042e04                _fwrite
 *fill*         0x00043156        0x2 4e714e71
 .text          0x00043158       0x2a /usr/m68k-ataribrown-elf/lib/m68020/softfp/libc.a(rewind.o)
                0x00043158                _rewind
 *fill*         0x00043182        0x2 4e714e71
 .text          0x00043184       0x1e /usr/m68k-ataribrown-elf/lib/m68020/softfp/libc.a(sprintf.o)
                0x00043184                _sprintf
 *fill*         0x000431a2        0x2 4e714e71
 .text          0x000431a4     0x3afa /usr/m68k-ataribrown-elf/lib/m68020/softfp/libc.a(vfprintf.o)
                0x00043644                ___printf_pad
                0x000436c2                _vfprintf
 *fill*         0x00046c9e        0x2 4e714e71
 .text          0x00046ca0       0x70 /usr/m68k-ataribrown-elf/lib/m68020/softfp/libc.a(vsprintf.o)
                0x00046ca0                _vsprintf
 .text          0x00046d10      0x28a /usr/m68k-ataribrown-elf/lib/m68020/softfp/libc.a(strtoul.o)
                0x00046f4e                ___strtoul_internal
                0x00046f74                _strtoul
 *fill*         0x00046f9a        0x2 4e714e71
 .text          0x00046f9c       0xd2 /usr/m68k-ataribrown-elf/lib/m68020/softfp/libc.a(bcmp.o)
                0x00046f9c                _bcmp
                0x00046f9c                ___bcmp
 *fill*         0x0004706e        0x2 4e714e71
 .text          0x00047070       0x2a /usr/m68k-ataribrown-elf/lib/m68020/softfp/libc.a(memchr.o)
                0x00047070                _memchr
 *fill*         0x0004709a        0x2 4e714e71
 .text          0x0004709c       0x20 /usr/m68k-ataribrown-elf/lib/m68020/softfp/libc.a(mempcpy.o)
                0x0004709c                ___mempcpy
                0x0004709c                _mempcpy
 .text          0x000470bc       0x68 /usr/m68k-ataribrown-elf/lib/m68020/softfp/libc.a(strcasecmp.o)
                0x000470bc                ___strcasecmp
                0x000470bc                _strcmpi
                0x000470bc                _strcasecmp
                0x000470bc                _stricmp
 .text          0x00047124       0x26 /usr/m68k-ataribrown-elf/lib/m68020/softfp/libc.a(strchr.o)
                0x00047124                _strchr
                0x00047124                _index
                0x00047124                ___strchr
 *fill*         0x0004714a        0x2 4e714e71
 .text          0x0004714c       0x12 /usr/m68k-ataribrown-elf/lib/m68020/softfp/libc.a(strcpy.o)
                0x0004714c                _strcpy
 *fill*         0x0004715e        0x2 4e714e71
 .text          0x00047160       0x6e /usr/m68k-ataribrown-elf/lib/m68020/softfp/libc.a(strerror_r.o)
                0x00047160                _strerror_r
                0x00047160                ___strerror_r
 *fill*         0x000471ce        0x2 4e714e71
 .text          0x000471d0       0x94 /usr/m68k-ataribrown-elf/lib/m68020/softfp/libc.a(strncasecmp.o)
                0x000471d0                ___strncasecmp
                0x000471d0                _strncasecmp
                0x000471d0                _strnicmp
                0x000471d0                _strncmpi
 .text          0x00047264       0x2a /usr/m68k-ataribrown-elf/lib/m68020/softfp/libc.a(strnlen.o)
                0x00047264                _strnlen
                0x00047264                ___strnlen
 *fill*         0x0004728e        0x2 4e714e71
 .text          0x00047290       0x2a /usr/m68k-ataribrown-elf/lib/m68020/softfp/libc.a(strpbrk.o)
                0x00047290                _strpbrk
 *fill*         0x000472ba        0x2 4e714e71
 .text          0x000472bc       0x1a /usr/m68k-ataribrown-elf/lib/m68020/softfp/libc.a(strtok.o)
                0x000472bc                _strtok
 *fill*         0x000472d6        0x2 4e714e71
 .text          0x000472d8       0x82 /usr/m68k-ataribrown-elf/lib/m68020/softfp/libc.a(strtok_r.o)
                0x000472d8                ___strtok_r
                0x000472d8                _strtok_r
 *fill*         0x0004735a        0x2 4e714e71
 .text          0x0004735c     0x2798 /usr/m68k-ataribrown-elf/lib/m68020/softfp/libc.a(localtime.o)
                0x000496e0                _tzsetwall
                0x00049750                _tzset
                0x0004987a                _localtime
                0x00049894                _localtime_r
                0x000498a8                _gmtime
                0x000498be                _gmtime_r
                0x000498d2                _offtime
                0x000498ea                _ctime
                0x00049912                _ctime_r
                0x00049938                _mktime
                0x00049950                _timelocal
                0x00049978                _timegm
                0x00049996                _timeoff
                0x000499b6                _time2posix
                0x000499f6                _posix2time
 .text          0x00049af4      0x14a /usr/m68k-ataribrown-elf/lib/m68020/softfp/libc.a(chmod.o)
                0x00049af4                ___chmod
                0x00049af4                _chmod
 *fill*         0x00049c3e        0x2 4e714e71
 .text          0x00049c40       0x30 /usr/m68k-ataribrown-elf/lib/m68020/softfp/libc.a(getegid.o)
                0x00049c40                _getegid
                0x00049c40                ___getegid
 .text          0x00049c70       0x30 /usr/m68k-ataribrown-elf/lib/m68020/softfp/libc.a(geteuid.o)
                0x00049c70                ___geteuid
                0x00049c70                _geteuid
 .text          0x00049ca0       0x34 /usr/m68k-ataribrown-elf/lib/m68020/softfp/libc.a(getpid.o)
                0x00049ca0                _getpid
                0x00049ca0                ___getpid
 .text          0x00049cd4      0x112 /usr/m68k-ataribrown-elf/lib/m68020/softfp/libc.a(kill.o)
                0x00049cd4                ___kill
                0x00049cd4                _kill
 *fill*         0x00049de6        0x2 4e714e71
 .text          0x00049de8      0x3a8 /usr/m68k-ataribrown-elf/lib/m68020/softfp/libc.a(select.o)
                0x00049de8                _select
                0x00049de8                ___select
 .text          0x0004a190       0x38 /usr/m68k-ataribrown-elf/lib/m68020/softfp/libc.a(time.o)
                0x0004a190                ___time
                0x0004a190                _time
 .text          0x0004a1c8      0x13c /usr/m68k-ataribrown-elf/lib/m68020/softfp/libc.a(connect.o)
                0x0004a1c8                ___connect
                0x0004a1c8                _connect
 .text          0x0004a304       0x9c /usr/m68k-ataribrown-elf/lib/m68020/softfp/libc.a(recv.o)
                0x0004a304                ___recv
                0x0004a304                _recv
 .text          0x0004a3a0      0x41c /usr/m68k-ataribrown-elf/lib/m68020/softfp/libc.a(res_init.o)
                0x0004a3a0                _res_init
 .text          0x0004a7bc      0x182 /usr/m68k-ataribrown-elf/lib/m68020/softfp/libc.a(res_mkquery.o)
                0x0004a7bc                _res_mkquery
 *fill*         0x0004a93e        0x2 4e714e71
 .text          0x0004a940       0x14 /usr/m68k-ataribrown-elf/lib/m68020/softfp/libc.a(abort.o)
                0x0004a940                _abort
 .text          0x0004a954       0x36 /usr/m68k-ataribrown-elf/lib/m68020/softfp/libc.a(calloc.o)
                0x0004a954                _calloc
                0x0004a954                ___calloc
 *fill*         0x0004a98a        0x2 4e714e71
 .text          0x0004a98c      0x36a /usr/m68k-ataribrown-elf/lib/m68020/softfp/libc.a(fgetpwent_r.o)
                0x0004aa16                ___fgetpwent_r
                0x0004aa16                _fgetpwent_r
 *fill*         0x0004acf6        0x2 4e714e71
 .text          0x0004acf8      0x1c8 /usr/m68k-ataribrown-elf/lib/m68020/softfp/libc.a(_itoa.o)
                0x0004acf8                __itoa
 .text          0x0004aec0        0xc /usr/m68k-ataribrown-elf/lib/m68020/softfp/libc.a(clearerr.o)
                0x0004aec0                _clearerr
                0x0004aec0                _clearerr_unlocked
 .text          0x0004aecc        0x8 /usr/m68k-ataribrown-elf/lib/m68020/softfp/libc.a(lockfile.o)
                0x0004aecc                ___internal_flockfile
                0x0004aecc                _flockfile
                0x0004aecc                ___flockfile
                0x0004aece                ___funlockfile
                0x0004aece                ___internal_funlockfile
                0x0004aece                _funlockfile
                0x0004aed0                _ftrylockfile
                0x0004aed0                ___internal_ftrylockfile
                0x0004aed0                ___ftrylockfile
 .text          0x0004aed4     0x1640 /usr/m68k-ataribrown-elf/lib/m68020/softfp/libc.a(printf_fp.o)
                0x0004b014                ___printf_fp
                0x0004c4cc                ___guess_grouping
 .text          0x0004c514      0xbaa /usr/m68k-ataribrown-elf/lib/m68020/softfp/libc.a(printf_fphex.o)
                0x0004c514                ___printf_fphex
 *fill*         0x0004d0be        0x2 4e714e71
 .text          0x0004d0c0       0xa2 /usr/m68k-ataribrown-elf/lib/m68020/softfp/libc.a(ungetc.o)
                0x0004d0c0                _ungetc
 *fill*         0x0004d162        0x2 4e714e71
 .text          0x0004d164      0x18c /usr/m68k-ataribrown-elf/lib/m68020/softfp/libc.a(asctime.o)
                0x0004d164                _asctime_r
                0x0004d2de                _asctime
 .text          0x0004d2f0     0x143c /usr/m68k-ataribrown-elf/lib/m68020/softfp/libc.a(strftime.o)
                0x0004e5e2                _strftime
 .text          0x0004e72c       0xf6 /usr/m68k-ataribrown-elf/lib/m68020/softfp/libc.a(gettimeofday.o)
                0x0004e72c                ___gettimeofday
                0x0004e72c                _gettimeofday
 *fill*         0x0004e822        0x2 4e714e71
 .text          0x0004e824      0x2c6 /usr/m68k-ataribrown-elf/lib/m68020/softfp/libc.a(poll.o)
                0x0004e824                ___poll
                0x0004e824                _poll
 *fill*         0x0004eaea        0x2 4e714e71
 .text          0x0004eaec       0x44 /usr/m68k-ataribrown-elf/lib/m68020/softfp/libc.a(inet_makeaddr.o)
                0x0004eaec                _inet_makeaddr
 .text          0x0004eb30       0xe0 /usr/m68k-ataribrown-elf/lib/m68020/softfp/libc.a(dbl2mpn.o)
                0x0004eb30                ___mpn_extract_double
 .text          0x0004ec10       0xc8 /usr/m68k-ataribrown-elf/lib/m68020/softfp/libc.a(ldbl2mpn.o)
                0x0004ec10                ___mpn_extract_long_double
 .text          0x0004ecd8       0x52 /usr/m68k-ataribrown-elf/lib/m68020/softfp/libc.a(mpn-cmp.o)
                0x0004ecd8                ___mpn_cmp
 *fill*         0x0004ed2a        0x2 4e714e71
 .text          0x0004ed2c      0x344 /usr/m68k-ataribrown-elf/lib/m68020/softfp/libc.a(mpn-divrem.o)
                0x0004ed2c                ___mpn_divrem
 .text          0x0004f070       0x66 /usr/m68k-ataribrown-elf/lib/m68020/softfp/libc.a(mpn-lshift.o)
                0x0004f070                ___mpn_lshift
 *fill*         0x0004f0d6        0x2 4e714e71
 .text          0x0004f0d8      0x29e /usr/m68k-ataribrown-elf/lib/m68020/softfp/libc.a(mpn-mul.o)
                0x0004f0d8                ___mpn_mul
 *fill*         0x0004f376        0x2 4e714e71
 .text          0x0004f378       0x3c /usr/m68k-ataribrown-elf/lib/m68020/softfp/libc.a(mpn-mul_1.o)
                0x0004f378                ___mpn_mul_1
 .text          0x0004f3b4      0x8e6 /usr/m68k-ataribrown-elf/lib/m68020/softfp/libc.a(mpn-mul_n.o)
                0x0004f3b4                ___mpn_impn_mul_n_basecase
                0x0004f4a2                ___mpn_impn_mul_n
                0x0004f814                ___mpn_impn_sqr_n_basecase
                0x0004f900                ___mpn_impn_sqr_n
                0x0004fbfe                ___mpn_mul_n
 *fill*         0x0004fc9a        0x2 4e714e71
 .text          0x0004fc9c       0x5e /usr/m68k-ataribrown-elf/lib/m68020/softfp/libc.a(mpn-rshift.o)
                0x0004fc9c                ___mpn_rshift
 *fill*         0x0004fcfa        0x2 4e714e71
 .text          0x0004fcfc       0x50 /usr/m68k-ataribrown-elf/lib/m68020/softfp/libc.a(mpn-sub_n.o)
                0x0004fcfc                ___mpn_sub_n
 .text          0x0004fd4c       0x4e /usr/m68k-ataribrown-elf/lib/m68020/softfp/libc.a(mpn-submul_1.o)
                0x0004fd4c                ___mpn_submul_1
 *fill*         0x0004fd9a        0x2 4e714e71
 .text          0x0004fd9c       0x2c /usr/m68k-ataribrown-elf/lib/m68020/softfp/libc.a(s_isinf.o)
                0x0004fd9c                _isinf
                0x0004fd9c                ___isinf
 .text          0x0004fdc8       0x62 /usr/m68k-ataribrown-elf/lib/m68020/softfp/libc.a(s_isinfl.o)
                0x0004fdc8                ___isinfl
                0x0004fdc8                _isinfl
 *fill*         0x0004fe2a        0x2 4e714e71
 .text          0x0004fe2c       0x2a /usr/m68k-ataribrown-elf/lib/m68020/softfp/libc.a(s_isnan.o)
                0x0004fe2c                _isnan
                0x0004fe2c                ___isnan
 *fill*         0x0004fe56        0x2 4e714e71
 .text          0x0004fe58       0x74 /usr/m68k-ataribrown-elf/lib/m68020/softfp/libc.a(s_isnanl.o)
                0x0004fe58                ___isnanl
                0x0004fe58                _isnanl
 .text          0x0004fecc        0xc /usr/m68k-ataribrown-elf/lib/m68020/softfp/libc.a(s_signbit.o)
                0x0004fecc                ___signbit
                0x0004fecc                _signbit
 .text          0x0004fed8       0x22 /usr/m68k-ataribrown-elf/lib/m68020/softfp/libc.a(s_signbitl.o)
                0x0004fed8                ___signbitl
                0x0004fed8                _signbitl
 *fill*         0x0004fefa        0x2 4e714e71
 .text          0x0004fefc        0x8 /usr/m68k-ataribrown-elf/lib/m68020/softfp/libc.a(setlocale.o)
                0x0004fefc                _setlocale
 .text          0x0004ff04       0xa0 /usr/m68k-ataribrown-elf/lib/m68020/softfp/libc.a(fputc.o)
                0x0004ff04                _fputc
                0x0004ff04                _fputc_unlocked
 .text          0x0004ffa4       0x50 /usr/m68k-ataribrown-elf/lib/m68020/softfp/libc.a(mpn-add_n.o)
                0x0004ffa4                ___mpn_add_n
 .text          0x0004fff4       0x4c /usr/m68k-ataribrown-elf/lib/m68020/softfp/libc.a(mpn-addmul_1.o)
                0x0004fff4                ___mpn_addmul_1
 .text          0x00050040      0x9cc /lib/gcc/m68k-ataribrown-elf/6.2.0/m68020/softfp/libgcc.a(_double.o)
                0x0005009a                ___subdf3
                0x000500a0                ___adddf3
                0x00050436                ___muldf3
                0x000505e4                ___divdf3
                0x00050858                ___negdf2
                0x000508b6                ___cmpdf2_internal
                0x00050986                ___cmpdf2
 .text          0x00050a0c       0x6a /lib/gcc/m68k-ataribrown-elf/6.2.0/m68020/softfp/libgcc.a(_floatex.o)
                0x00050a0c                ___clear_sticky_bit
                0x00050a1a                $_exception_handler
 *fill*         0x00050a76        0x2 4e714e71
 .text          0x00050a78       0x22 /lib/gcc/m68k-ataribrown-elf/6.2.0/m68020/softfp/libgcc.a(_ltdf2.o)
                0x00050a78                ___ltdf2
 *fill*         0x00050a9a        0x2 4e714e71
 .text          0x00050a9c      0x3de /lib/gcc/m68k-ataribrown-elf/6.2.0/m68020/softfp/libgcc.a(fpgnulib.o)
                0x00050a9c                ___unordsf2
                0x00050ade                ___unorddf2
                0x00050b32                ___floatunsidf
                0x00050b8c                ___floatsidf
                0x00050c44                ___floatunsisf
                0x00050c58                ___floatsisf
                0x00050c6c                ___extendsfdf2
                0x00050cd0                ___truncdfsf2
                0x00050dee                ___fixdfsi
                0x00050e66                ___fixsfsi
 *fill*         0x00050e7a        0x2 4e714e71
 .text          0x00050e7c      0x730 /lib/gcc/m68k-ataribrown-elf/6.2.0/m68020/softfp/libgcc.a(xfgnulib.o)
                0x00050e7c                ___unordxf2
                0x00050efe                ___extenddfxf2
                0x00050fa8                ___truncxfdf2
                0x00051054                ___extendsfxf2
                0x0005109a                ___truncxfsf2
                0x000510bc                ___floatsixf
                0x00051102                ___floatunsixf
                0x00051148                ___fixxfsi
                0x0005116a                ___addxf3
                0x000511e0                ___subxf3
                0x00051256                ___mulxf3
                0x000512cc                ___divxf3
                0x00051342                ___negxf2
                0x00051398                ___cmpxf2
                0x000513e4                ___eqxf2
                0x00051430                ___nexf2
                0x0005147c                ___ltxf2
                0x000514c8                ___lexf2
                0x00051514                ___gtxf2
                0x00051560                ___gexf2
 .text          0x000515ac       0x1e /usr/m68k-ataribrown-elf/lib/m68020/softfp/libc.a(fscanf.o)
                0x000515ac                _fscanf
 *fill*         0x000515ca        0x2 4e714e71
 .text          0x000515cc       0x20 /usr/m68k-ataribrown-elf/lib/m68020/softfp/libc.a(printf.o)
                0x000515cc                _printf
 .text          0x000515ec       0x1e /usr/m68k-ataribrown-elf/lib/m68020/softfp/libc.a(sscanf.o)
                0x000515ec                _sscanf
 *fill*         0x0005160a        0x2 4e714e71
 .text          0x0005160c     0x29fe /usr/m68k-ataribrown-elf/lib/m68020/softfp/libc.a(vfscanf.o)
                0x0005160c                _vfscanf
                0x0005160c                ___vfscanf
 *fill*         0x0005400a        0x2 4e714e71
 .text          0x0005400c       0x86 /usr/m68k-ataribrown-elf/lib/m68020/softfp/libc.a(vsscanf.o)
                0x0005400c                ___vsscanf
                0x0005400c                _vsscanf
 *fill*         0x00054092        0x2 4e714e71
 .text          0x00054094     0x2072 /usr/m68k-ataribrown-elf/lib/m68020/softfp/libc.a(strtod.o)
                0x000540dc                ___strtod_internal
                0x000560f2                _strtod
 *fill*         0x00056106        0x2 4e714e71
 .text          0x00056108     0x1b22 /usr/m68k-ataribrown-elf/lib/m68020/softfp/libc.a(strtof.o)
                0x00056148                ___strtof_internal
                0x00057c16                _strtof
 *fill*         0x00057c2a        0x2 4e714e71
 .text          0x00057c2c     0x2638 /usr/m68k-ataribrown-elf/lib/m68020/softfp/libc.a(strtold.o)
                0x00057c74                ___strtold_internal
                0x0005a222                _strtold
 .text          0x0005a264      0x50e /usr/m68k-ataribrown-elf/lib/m68020/softfp/libc.a(strtoll.o)
                0x0005a722                ___strtoll_internal
                0x0005a722                ___strtoq_internal
                0x0005a74a                _strtoq
                0x0005a74a                _strtoll
 *fill*         0x0005a772        0x2 4e714e71
 .text          0x0005a774      0x4be /usr/m68k-ataribrown-elf/lib/m68020/softfp/libc.a(strtoull.o)
                0x0005abe2                ___strtouq_internal
                0x0005abe2                ___strtoull_internal
                0x0005ac0a                _strtoull
                0x0005ac0a                _strtouq
 *fill*         0x0005ac32        0x2 4e714e71
 .text          0x0005ac34       0x2c /usr/m68k-ataribrown-elf/lib/m68020/softfp/libc.a(mpn2dbl.o)
                0x0005ac34                ___mpn_construct_double
 .text          0x0005ac60       0x22 /usr/m68k-ataribrown-elf/lib/m68020/softfp/libc.a(mpn2flt.o)
                0x0005ac60                ___mpn_construct_float
 *fill*         0x0005ac82        0x2 4e714e71
 .text          0x0005ac84       0x52 /usr/m68k-ataribrown-elf/lib/m68020/softfp/libc.a(mpn2ldbl.o)
                0x0005ac84                ___mpn_construct_long_double
 *fill*         0x0005acd6        0x2 4e714e71
 .text          0x0005acd8       0x28 /lib/gcc/m68k-ataribrown-elf/6.2.0/m68020/softfp/libgcc.a(_muldi3.o)
                0x0005acd8                ___muldi3
 .text          0x0005ad00       0xba /lib/gcc/m68k-ataribrown-elf/6.2.0/m68020/softfp/libgcc.a(_udivdi3.o)
                0x0005ad00                ___udivdi3
 *fill*         0x0005adba        0x2 4e714e71
 .text          0x0005adbc       0xde /lib/gcc/m68k-ataribrown-elf/6.2.0/m68020/softfp/libgcc.a(_umoddi3.o)
                0x0005adbc                ___umoddi3
 *(.gnu.warning)

CODE            0x0005ae9c    0x1a472
                [!provide]                PROVIDE (__start_CODE, .)
 CODE           0x0005ae9c    0x1a472 ../bmengine/libbmengine.a(bmengine.o)
                0x0005af6c                _BM_Player1StartPointCB
                0x0005af74                _BM_S_EntryPoint
                0x0005aff0                _BM_S_Init
                0x0005b028                _BM_S_Shutdown
                0x0005b048                _BM_E_Init
                0x0005b0d2                _BM_E_Shutdown
                0x0005b0de                _BM_R_BeginScene
                0x0005b0f0                _BM_R_DrawScene
                0x0005b12a                _BM_R_EndScene
                0x0005b1be                _BM_E_SetMap
                0x0005b1e6                _BM_E_LoadLevel
                0x0005b224                _BM_E_ReleaseLevel
                0x0005b244                _BM_E_SetIWAD
                0x0005b27e                _BM_E_AddPWAD
                0x0005b2b8                _BM_E_MapLumpID
                0x0005b306                _BM_E_SetTextureIDRange
                0x0005b34c                _BM_E_MapTextureID
                0x0005b38c                _BM_E_SetFlatIDRange
                0x0005b3d2                _BM_E_MapFlatID
                0x0005b410                _BM_E_SetSidedefTexture
                0x0005b478                _BM_E_RegisterSFX
                0x0005b4ae                _BM_E_TouchSpriteLump
                0x0005b4e8                _BM_E_CacheLumpID
                0x0005b524                _BM_E_OpenWADs
                0x0005b5c8                _BM_E_CloseWADs
                0x0005b5d8                _BM_R_SetWindowSize
                0x0005b600                _BM_R_SetWindowDimensions
                0x0005b6ba                _BM_R_SetCamera
                0x0005b6ec                _BM_R_DeferVisSprite
                0x0005b70c                _BM_E_PrecacheLevel
                0x0005b71e                _BM_E_ProfilerReset
                0x0005b72a                _BM_I_Init
                0x0005b73a                _BM_I_Shutdown
                0x0005b74a                _BM_T_Init
                0x0005b75a                _BM_T_AdvanceTicks
                0x0005b762                _BM_T_CalibrateTicks
                0x0005b782                _BM_T_GetTicks
                0x0005b79a                _BM_T_Shutdown
                0x0005b7aa                _BM_V_Init
                0x0005b83c                _BM_V_Sync
                0x0005b850                _BM_V_ConfigureSplitScreen
                0x0005b888                _BM_V_SetFramebuffer
                0x0005b8b8                _BM_V_Shutdown
                0x0005b8d4                _BM_E_ConsoleText
                0x0005b930                _BM_E_AllocChunk
                0x0005b944                _BM_E_FreeChunk
                0x0005b956                _BM_M_CheckHeap
                0x0005b958                _BM_M_Alloc
                0x0005b976                _BM_M_XAlloc
                0x0005b99c                _BM_M_Free
                0x0005b9b4                _BM_Z_Alloc
                0x0005b9ec                _BM_Z_Free
                0x0005b9fe                _BM_Z_FreeTags
                0x0005ba56                _BM_A_SNDHStart
                0x0005ba6a                _BM_A_SNDHStop
                0x0005ba7e                _BM_E_SetSplitScreenBase
                0x0005ba9e                _BM_E_SetSplitScreen
                0x0005bab8                _BM_E_SetFullscreenEffect
                0x0005bace                _BM_E_SetPickupIndicators
                0x0005bae6                _BM_E_SetStateIndicators
                0x0005bb0e                _BM_V_ClearLines
                0x0005bb44                _BM_V_BlitRect16
                0x0005bc12                _BM_E_PlayerDeath
                0x0005bc14                _BM_E_PrecacheAll
                0x0005bc5a                _BM_S_Bindings
                0x0005dfa8                _detect_nf
                0x0005dfd0                _nf_id
                0x0005dfd4                _nf_call
                0x0006736c                _g_max_dsptextures
                0x00067370                _g_spr_fastpatharea
                0x00067374                _g_tseg_fastpathmindv
                0x00070f64                _BM_E_PNGQuerySpace
                0x00070fca                _BM_E_PNGDecode
                0x000725a8                _BM_P_CheckSight
                0x00072670                _BM_P_CrossBSPNode
                0x000727d4                _BM_A_Mux3x2_std
                0x00072b24                _BM_A_Mux2x2_std
                0x00072cc8                _BM_A_Mux1x2_std
                0x00072dc0                _BM_A_Mux3x2_oly
                0x00073130                _BM_A_Mux2x2_oly
                0x000732ec                _BM_A_Mux1x2_oly
                0x0007342a                _BM_A_RMuxSC
                0x000739b2                _BM_A_RMuxMC
                0x00074bc4                _BM_A_MuxNx2
                0x00074d40                _BM_A_Init
                0x00074d68                _BM_AudioTimerA
                0x00074e0e                _BM_AudioStartDMA
                0x00074eaa                _BM_A_Resample
                0x00074fd8                _BM_E_SampleJPads
                [!provide]                PROVIDE (__stop_CODE, .)

.fini
 *(SORT(.fini))
                0x0007530e                PROVIDE (__etext, .)
                0x0007530e                PROVIDE (_etext, .)
                [!provide]                PROVIDE (etext, .)

.rodata         0x0007530e    0x12890
 *(.rodata .rodata.* .gnu.linkonce.r.*)
 .rodata.G_Ticker.str1.1
                0x0007530e      0x23a /tmp/ccWJ2D8E.ltrans0.ltrans.o
                                0x266 (size before relaxing)
 .rodata.pars   0x00075548       0xa0 /tmp/ccWJ2D8E.ltrans0.ltrans.o
 .rodata.cpars  0x000755e8       0x80 /tmp/ccWJ2D8E.ltrans0.ltrans.o
 .rodata.str1.1
                0x00075668       0xde /tmp/ccWJ2D8E.ltrans0.ltrans.o
                                 0xe4 (size before relaxing)
 .rodata.castorder
                0x00075746       0x90 /tmp/ccWJ2D8E.ltrans0.ltrans.o
                0x00075746                _castorder
 .rodata.player_names
                0x000757d6       0x10 /tmp/ccWJ2D8E.ltrans0.ltrans.o
 .rodata.D_DoomMain.str1.1
                0x000757e6     0x1246 /tmp/ccWJ2D8E.ltrans1.ltrans.o
                               0x12ae (size before relaxing)
 .rodata        0x00076a2c       0xb8 /tmp/ccWJ2D8E.ltrans1.ltrans.o
 .rodata.str1.1
                0x00076ae4      0x2a8 /tmp/ccWJ2D8E.ltrans1.ltrans.o
                                0x2b2 (size before relaxing)
 .rodata.french_shiftxform
                0x00076d8c       0x80 /tmp/ccWJ2D8E.ltrans1.ltrans.o
 .rodata.G_DoLoadLevel.str1.1
                0x00076e0c       0xd0 /tmp/ccWJ2D8E.ltrans2.ltrans.o
                                0x100 (size before relaxing)
 .rodata.their_colors.5833
                0x00076edc       0x10 /tmp/ccWJ2D8E.ltrans3.ltrans.o
 .rodata.D_DoomLoop.str1.1
                0x00076eec       0xc3 /tmp/ccWJ2D8E.ltrans4.ltrans.o
                                 0xec (size before relaxing)
 .rodata.I_Error.str1.1
                0x00076faf        0x8 /tmp/ccWJ2D8E.ltrans5.ltrans.o
                                 0x31 (size before relaxing)
 .rodata.I_InitSound.str1.1
                0x00076fb7       0x98 /tmp/ccWJ2D8E.ltrans5.ltrans.o
                                 0xd4 (size before relaxing)
 .rodata.HGetPacket.part.0.str1.1
                0x0007704f       0x5b /tmp/ccWJ2D8E.ltrans5.ltrans.o
 .rodata.CheckAbort.str1.1
                0x000770aa       0x26 /tmp/ccWJ2D8E.ltrans5.ltrans.o
 .rodata.D_CheckNetGame.str1.1
                0x000770d0      0x189 /tmp/ccWJ2D8E.ltrans5.ltrans.o
 .rodata.NetUpdate.str1.1
                0x00077259       0xad /tmp/ccWJ2D8E.ltrans5.ltrans.o
 .rodata.istep_tab
                0x00077306     0x4000 /tmp/ccWJ2D8E.ltrans5.ltrans.o
 .rodata.D_ProcessEvents.str1.1
                0x0007b306      0x173 /tmp/ccWJ2D8E.ltrans6.ltrans.o
                                0x192 (size before relaxing)
 .rodata.frenchKeyMap
                0x0007b479       0x80 /tmp/ccWJ2D8E.ltrans6.ltrans.o
 .rodata.P_ChangeSwitchTexture.str1.1
                0x0007b4f9       0x25 /tmp/ccWJ2D8E.ltrans7.ltrans.o
 .rodata.P_UseSpecialLine.str1.1
                0x0007b51e       0x73 /tmp/ccWJ2D8E.ltrans7.ltrans.o
 .rodata.P_FindNextHighestFloor.str1.1
                0x0007b591       0x2c /tmp/ccWJ2D8E.ltrans7.ltrans.o
 .rodata.W_ReadLump.str1.1
                0x0007b5bd       0x69 /tmp/ccWJ2D8E.ltrans8.ltrans.o
 .rodata.W_CacheLumpNum.str1.1
                0x0007b626      0x224 /tmp/ccWJ2D8E.ltrans8.ltrans.o
                                0x241 (size before relaxing)
 .rodata.W_GetNumForName.str1.1
                0x0007b84a       0x1f /tmp/ccWJ2D8E.ltrans8.ltrans.o
 .rodata.R_InstallSpriteLump.str1.1
                0x0007b84a       0xec /tmp/ccWJ2D8E.ltrans8.ltrans.o
 .rodata.R_FillBackScreen.str1.1
                0x0007b936       0x3c /tmp/ccWJ2D8E.ltrans8.ltrans.o
 .rodata.lnodes
                0x0007b972      0x120 /tmp/ccWJ2D8E.ltrans8.ltrans.o
 .rodata.PTR_SlideTraverse.str1.1
                0x0007ba92       0x1f /tmp/ccWJ2D8E.ltrans9.ltrans.o
 .rodata.P_RemoveActivePlat.str1.1
                0x0007bab1       0x25 /tmp/ccWJ2D8E.ltrans10.ltrans.o
 .rodata.EV_DoElevator.str1.1
                0x0007bad6       0x20 /tmp/ccWJ2D8E.ltrans10.ltrans.o
 .rodata.P_GiveAmmo.str1.1
                0x0007bad6       0x18 /tmp/ccWJ2D8E.ltrans12.ltrans.o
 .rodata.clipammo
                0x0007baee       0x10 /tmp/ccWJ2D8E.ltrans12.ltrans.o
 .rodata.fmtint.str1.1
                0x0007bafe       0x22 /tmp/ccWJ2D8E.ltrans13.ltrans.o
 .rodata.dopr.str1.1
                0x0007bb20        0x7 /tmp/ccWJ2D8E.ltrans13.ltrans.o
 .rodata.HSendPacket.str1.1
                0x0007bb27       0x52 /tmp/ccWJ2D8E.ltrans13.ltrans.o
 .rodata.bmprintf.str1.1
                0x0007bb27        0x3 /tmp/ccWJ2D8E.ltrans13.ltrans.o
 .rodata.BM_S_ExceptionHandler.str1.1
                0x0007bb27      0x19c /tmp/ccWJ2D8E.ltrans13.ltrans.o
 .rodata.R_FlatNumForName.part.0.str1.1
                0x0007bcc3       0x1f /tmp/ccWJ2D8E.ltrans14.ltrans.o
 .rodata.R_TextureNumForName.str1.1
                0x0007bce2       0x22 /tmp/ccWJ2D8E.ltrans14.ltrans.o
 .rodata.R_InitTextures.str1.1
                0x0007bce2       0xd6 /tmp/ccWJ2D8E.ltrans14.ltrans.o
                                0x109 (size before relaxing)
 .rodata.P_Ticker.str1.1
                0x0007bdb8       0x2c /tmp/ccWJ2D8E.ltrans14.ltrans.o
 .rodata.EV_DoPlat.constprop.61.str1.1
                0x0007bde4       0x20 /tmp/ccWJ2D8E.ltrans15.ltrans.o
 .rodata.P_NewChaseDir.str1.1
                0x0007bde4       0x25 /tmp/ccWJ2D8E.ltrans16.ltrans.o
 .rodata.A_Chase.str1.1
                0x0007be09       0x16 /tmp/ccWJ2D8E.ltrans16.ltrans.o
 *fill*         0x0007be1f        0x1 
 .rodata.diags  0x0007be20       0x10 /tmp/ccWJ2D8E.ltrans16.ltrans.o
 .rodata.opposite
                0x0007be30       0x24 /tmp/ccWJ2D8E.ltrans16.ltrans.o
 .rodata.yspeed
                0x0007be54       0x20 /tmp/ccWJ2D8E.ltrans16.ltrans.o
                0x0007be54                _yspeed
 .rodata.xspeed
                0x0007be74       0x20 /tmp/ccWJ2D8E.ltrans16.ltrans.o
                0x0007be74                _xspeed
 .rodata.EV_DoLockedDoor.constprop.9.str1.1
                0x0007be94       0x85 /tmp/ccWJ2D8E.ltrans18.ltrans.o
 .rodata.BM_E_PrecacheProgress.str1.1
                0x0007bf19       0x1b /tmp/ccWJ2D8E.ltrans18.ltrans.o
 .rodata.BM_E_DrawDiskIcon.str1.1
                0x0007bf34        0x7 /tmp/ccWJ2D8E.ltrans18.ltrans.o
 .rodata.BM_S_AppEntryPoint.str1.1
                0x0007bf34       0xb2 /tmp/ccWJ2D8E.ltrans18.ltrans.o
 .rodata.main.str1.1
                0x0007bfe6       0xc2 /tmp/ccWJ2D8E.ltrans18.ltrans.o
                                 0xd4 (size before relaxing)
 .rodata.S_ChangeMusic.str1.1
                0x0007c0a8       0x14 /tmp/ccWJ2D8E.ltrans18.ltrans.o
                                 0x23 (size before relaxing)
 .rodata.S_StartSoundAtVolume.str1.1
                0x0007c0bc        0xe /tmp/ccWJ2D8E.ltrans18.ltrans.o
 .rodata.ST_Responder.part.1.str1.1
                0x0007c0ca      0x137 /tmp/ccWJ2D8E.ltrans18.ltrans.o
 *fill*         0x0007c201        0x1 
 .rodata.tantoangle
                0x0007c202     0x2004 /tmp/ccWJ2D8E.ltrans18.ltrans.o
 .rodata.str1.1
                0x0007e206      0x1c1 /tmp/ccWJ2D8E.ltrans18.ltrans.o
 .rodata.P_SpawnPlayer.str1.1
                0x0007e3c7        0x9 /tmp/ccWJ2D8E.ltrans19.ltrans.o
 .rodata.weaponinfo
                0x0007e3d0       0xd8 /tmp/ccWJ2D8E.ltrans19.ltrans.o
                0x0007e3d0                _weaponinfo
 .rodata.str1.1
                0x0007e4a8      0x59e /tmp/ccWJ2D8E.ltrans19.ltrans.o
 .rodata.mapnames2
                0x0007ea46       0x80 /tmp/ccWJ2D8E.ltrans19.ltrans.o
 .rodata.mapnames
                0x0007eac6       0xb4 /tmp/ccWJ2D8E.ltrans19.ltrans.o
 .rodata.M_EndGame.str1.1
                0x0007eb7a       0x5d /tmp/ccWJ2D8E.ltrans20.ltrans.o
 .rodata.M_ChangeMessages.str1.1
                0x0007ebd7       0x19 /tmp/ccWJ2D8E.ltrans20.ltrans.o
 .rodata.M_ChooseSkill.str1.1
                0x0007ebf0       0x48 /tmp/ccWJ2D8E.ltrans20.ltrans.o
 .rodata.M_NewGame.str1.1
                0x0007ec38       0x42 /tmp/ccWJ2D8E.ltrans20.ltrans.o
 .rodata.M_SfxVol.str1.1
                0x0007ec7a       0x20 /tmp/ccWJ2D8E.ltrans20.ltrans.o
 .rodata.M_Episode.str1.1
                0x0007ec7a       0x8a /tmp/ccWJ2D8E.ltrans20.ltrans.o
 .rodata.M_QuitDOOM.str1.1
                0x0007ed04       0x45 /tmp/ccWJ2D8E.ltrans20.ltrans.o
 .rodata.M_QuitResponse.str1.1
                0x0007ed49       0x12 /tmp/ccWJ2D8E.ltrans20.ltrans.o
                                 0x14 (size before relaxing)
 .rodata.M_DrawEpisode.str1.1
                0x0007ed5b        0x9 /tmp/ccWJ2D8E.ltrans20.ltrans.o
                                 0x28 (size before relaxing)
 .rodata.M_DrawNewGame.str1.1
                0x0007ed64        0xf /tmp/ccWJ2D8E.ltrans20.ltrans.o
 .rodata.M_DrawMainMenu.str1.1
                0x0007ed73        0x7 /tmp/ccWJ2D8E.ltrans20.ltrans.o
 .rodata.M_DrawOptions.str1.1
                0x0007ed7a       0x2d /tmp/ccWJ2D8E.ltrans20.ltrans.o
 .rodata.M_MusicVol.str1.1
                0x0007eda7       0x22 /tmp/ccWJ2D8E.ltrans20.ltrans.o
 .rodata.AM_unloadPics.lto_priv.158.str1.1
                0x0007eda7       0xb8 /tmp/ccWJ2D8E.ltrans20.ltrans.o
 .rodata.str1.1
                0x0007eda7      0x708 /tmp/ccWJ2D8E.ltrans20.ltrans.o
                                0x714 (size before relaxing)
 *fill*         0x0007f4af        0x1 
 .rodata.defaults
                0x0007f4b0      0x384 /tmp/ccWJ2D8E.ltrans20.ltrans.o
                0x0007f4b0                _defaults
 .rodata.quitsounds
                0x0007f834       0x20 /tmp/ccWJ2D8E.ltrans20.ltrans.o
 .rodata.quitsounds2
                0x0007f854       0x20 /tmp/ccWJ2D8E.ltrans20.ltrans.o
 .rodata.endmsg
                0x0007f874       0x5c /tmp/ccWJ2D8E.ltrans20.ltrans.o
 .rodata.M_DrawReadThis2.str1.1
                0x0007f8d0        0xd /tmp/ccWJ2D8E.ltrans21.ltrans.o
 .rodata.M_DrawReadThis1.str1.1
                0x0007f8d0        0xb /tmp/ccWJ2D8E.ltrans21.ltrans.o
 .rodata.M_DrawSound.str1.1
                0x0007f8db        0x7 /tmp/ccWJ2D8E.ltrans21.ltrans.o
                                 0x4a (size before relaxing)
 .rodata.M_SaveGame.str1.1
                0x0007f8e2       0x34 /tmp/ccWJ2D8E.ltrans21.ltrans.o
                                 0x63 (size before relaxing)
 .rodata.M_SaveSelect.str1.1
                0x0007f916        0xb /tmp/ccWJ2D8E.ltrans21.ltrans.o
 .rodata.M_DrawSave.str1.1
                0x0007f921       0x23 /tmp/ccWJ2D8E.ltrans21.ltrans.o
 .rodata.M_DrawLoad.str1.1
                0x0007f944        0x8 /tmp/ccWJ2D8E.ltrans21.ltrans.o
 .rodata.M_LoadGame.str1.1
                0x0007f94c       0x35 /tmp/ccWJ2D8E.ltrans21.ltrans.o
 .rodata.G_CheckDemoStatus.str1.1
                0x0007f981       0x59 /tmp/ccWJ2D8E.ltrans21.ltrans.o
                                 0x6d (size before relaxing)
 .rodata.G_SecretExitLevel.str1.1
                0x0007f9da        0x6 /tmp/ccWJ2D8E.ltrans21.ltrans.o
 .rodata.audio_mux_frame.str1.1
                0x0007f9e0       0x4e /tmp/ccWJ2D8E.ltrans22.ltrans.o
 .rodata.STlib_updateMultIcon.part.1.str1.1
                0x0007fa2e       0x1d /tmp/ccWJ2D8E.ltrans23.ltrans.o
 .rodata.STlib_drawNum.str1.1
                0x0007fa4b       0x19 /tmp/ccWJ2D8E.ltrans23.ltrans.o
 .rodata.ST_drawWidgets.str1.1
                0x0007fa64       0x1c /tmp/ccWJ2D8E.ltrans23.ltrans.o
 .rodata.WI_unloadData.str1.1
                0x0007fa80       0x4c /tmp/ccWJ2D8E.ltrans23.ltrans.o
                                 0xbc (size before relaxing)
 .rodata.NUMANIMS.lto_priv.121
                0x0007facc       0x10 /tmp/ccWJ2D8E.ltrans23.ltrans.o
                0x0007facc                _NUMANIMS.lto_priv.121
 .rodata.anims.lto_priv.120
                0x0007fadc       0x10 /tmp/ccWJ2D8E.ltrans23.ltrans.o
                0x0007fadc                _anims.lto_priv.120
 .rodata.PacketGet.str1.1
                0x0007faec        0xe /tmp/ccWJ2D8E.ltrans25.ltrans.o
 .rodata.BM_S_BMMLoad.str1.1
                0x0007fafa       0xe1 /tmp/ccWJ2D8E.ltrans25.ltrans.o
                                0x185 (size before relaxing)
 .rodata.F_StartFinale.str1.1
                0x0007fbdb      0xf9b /tmp/ccWJ2D8E.ltrans25.ltrans.o
 .rodata.UDPsocket.part.0.str1.1
                0x00080b76       0x18 /tmp/ccWJ2D8E.ltrans25.ltrans.o
 .rodata.I_FinishUpdate.str1.1
                0x00080b8e        0x7 /tmp/ccWJ2D8E.ltrans25.ltrans.o
 .rodata.I_RegisterSong.str1.1
                0x00080b8e       0x10 /tmp/ccWJ2D8E.ltrans25.ltrans.o
 .rodata.S_music_bmz
                0x00080b9e      0x4d0 /tmp/ccWJ2D8E.ltrans25.ltrans.o
 .rodata.scantokey
                0x0008106e       0x80 /tmp/ccWJ2D8E.ltrans25.ltrans.o
 .rodata.P_CheckPosition.part.6.str1.1
                0x000810ee      0x3bf /tmp/ccWJ2D8E.ltrans26.ltrans.o
 .rodata.P_TryWalk.str1.1
                0x000814ad       0x16 /tmp/ccWJ2D8E.ltrans27.ltrans.o
 .rodata.Z_ChangeTag2.constprop.89.str1.1
                0x000814ad       0x41 /tmp/ccWJ2D8E.ltrans28.ltrans.o
                                 0xb1 (size before relaxing)
 .rodata.S_StartSound.constprop.86.str1.1
                0x000814ee        0xe /tmp/ccWJ2D8E.ltrans28.ltrans.o
 .rodata.W_CacheLumpName.constprop.79.str1.1
                0x000814ee       0x1f /tmp/ccWJ2D8E.ltrans28.ltrans.o
 .rodata.rndtable
                0x000814ee      0x100 /tmp/ccWJ2D8E.ltrans28.ltrans.o
                0x000814ee                _rndtable
 .rodata.str1.1
                0x000815ee      0x6ba /tmp/ccWJ2D8E.ltrans28.ltrans.o
                                0x6c5 (size before relaxing)
 .rodata.G_DeathMatchSpawnPlayer.str1.1
                0x00081ca8       0x25 /tmp/ccWJ2D8E.ltrans29.ltrans.o
 *fill*         0x00081ccd        0x1 
 .rodata.angleturn
                0x00081cce        0xc /tmp/ccWJ2D8E.ltrans30.ltrans.o
 .rodata.D_DoAdvanceDemo.str1.1
                0x00081cda       0x57 /tmp/ccWJ2D8E.ltrans31.ltrans.o
                                 0x64 (size before relaxing)
 .rodata.str1.1
                0x00081d31       0xac /usr/m68k-ataribrown-elf/lib/m68020/softfp/libc.a(crtinit.o)
                                 0xad (size before relaxing)
 .rodata.str1.1
                0x00081ddd       0x14 /usr/m68k-ataribrown-elf/lib/m68020/softfp/libc.a(globals.o)
 .rodata.str1.1
                0x00081df1       0x13 /usr/m68k-ataribrown-elf/lib/m68020/softfp/libc.a(main.o)
 .rodata.str1.1
                0x00081e04       0x4d /usr/m68k-ataribrown-elf/lib/m68020/softfp/libc.a(malloc.o)
 .rodata        0x00081e51        0x7 /usr/m68k-ataribrown-elf/lib/m68020/softfp/libc.a(malloc.o)
 .rodata.str1.1
                0x00081e58       0x1c /usr/m68k-ataribrown-elf/lib/m68020/softfp/libc.a(realloc.o)
 .rodata        0x00081e74        0xa /usr/m68k-ataribrown-elf/lib/m68020/softfp/libc.a(realloc.o)
 .rodata.str1.1
                0x00081e7e       0x12 /usr/m68k-ataribrown-elf/lib/m68020/softfp/libc.a(unx2dos.o)
                                 0x14 (size before relaxing)
 .rodata        0x00081e90       0x30 /usr/m68k-ataribrown-elf/lib/m68020/softfp/libc.a(internals.o)
                0x00081e90                ___default_room_functions
                0x00081e98                ___default_text_io_functions
                0x00081eac                ___default_io_functions
 .rodata.str1.1
                0x00081ec0      0xcb1 /usr/m68k-ataribrown-elf/lib/m68020/softfp/libc.a(strerror.o)
                                0xcbb (size before relaxing)
 *fill*         0x00082b71        0x1 
 .rodata        0x00082b72      0x532 /usr/m68k-ataribrown-elf/lib/m68020/softfp/libc.a(strerror.o)
                0x00082b72                __sys_errlist
                0x00082b72                _sys_errlist
 .rodata.str1.1
                0x000830a4       0x26 /usr/m68k-ataribrown-elf/lib/m68020/softfp/libc.a(gethostname.o)
 .rodata.str1.1
                0x000830ca        0xc /usr/m68k-ataribrown-elf/lib/m68020/softfp/libc.a(ioctl.o)
 .rodata.str1.1
                0x000830d6        0x9 /usr/m68k-ataribrown-elf/lib/m68020/softfp/libc.a(open.o)
 .rodata.str1.1
                0x000830df      0x1d9 /usr/m68k-ataribrown-elf/lib/m68020/softfp/libc.a(gethostnamadr.o)
                                0x1ef (size before relaxing)
 .rodata.str1.1
                0x000832b8       0x16 /usr/m68k-ataribrown-elf/lib/m68020/softfp/libc.a(res_query.o)
                                 0x19 (size before relaxing)
 .rodata.str1.1
                0x000832ce        0xe /usr/m68k-ataribrown-elf/lib/m68020/softfp/libc.a(socket.o)
 .rodata.str1.1
                0x000832dc       0x18 /usr/m68k-ataribrown-elf/lib/m68020/softfp/libc.a(assert.o)
                                 0x31 (size before relaxing)
 .rodata.str1.1
                0x000832f4       0x1e /usr/m68k-ataribrown-elf/lib/m68020/softfp/libc.a(do_stat.o)
                                 0x22 (size before relaxing)
 .rodata        0x00083312        0x6 /usr/m68k-ataribrown-elf/lib/m68020/softfp/libc.a(do_stat.o)
 .rodata.str1.1
                0x00083318       0x22 /usr/m68k-ataribrown-elf/lib/m68020/softfp/libc.a(quickstat.o)
 .rodata        0x00083318        0x6 /usr/m68k-ataribrown-elf/lib/m68020/softfp/libc.a(quickstat.o)
 .rodata.str1.1
                0x0008331e        0xc /usr/m68k-ataribrown-elf/lib/m68020/softfp/libc.a(getpwuid_r.o)
                                  0xe (size before relaxing)
 .rodata.str1.1
                0x0008332a        0xb /usr/m68k-ataribrown-elf/lib/m68020/softfp/libc.a(grp.o)
                                  0xe (size before relaxing)
 .rodata        0x00083335       0x4a /usr/m68k-ataribrown-elf/lib/m68020/softfp/libc.a(itoa-digits.o)
                0x00083335                __itoa_upper_digits
                0x0008335a                __itoa_lower_digits
 .rodata.str1.1
                0x0008337f        0x6 /usr/m68k-ataribrown-elf/lib/m68020/softfp/libc.a(vfprintf.o)
                                  0x7 (size before relaxing)
 *fill*         0x00083385        0x1 
 .rodata        0x00083386      0x4cb /usr/m68k-ataribrown-elf/lib/m68020/softfp/libc.a(vfprintf.o)
 .rodata.str1.1
                0x00083851       0x3e /usr/m68k-ataribrown-elf/lib/m68020/softfp/libc.a(bcmp.o)
 .rodata        0x0008388f        0x7 /usr/m68k-ataribrown-elf/lib/m68020/softfp/libc.a(bcmp.o)
 .rodata.str1.1
                0x00083896       0x94 /usr/m68k-ataribrown-elf/lib/m68020/softfp/libc.a(localtime.o)
 .rodata        0x0008392a     0x2db0 /usr/m68k-ataribrown-elf/lib/m68020/softfp/libc.a(localtime.o)
 .rodata.str1.1
                0x000866da       0x36 /usr/m68k-ataribrown-elf/lib/m68020/softfp/libc.a(res_init.o)
                                 0x39 (size before relaxing)
 .rodata.str1.1
                0x00086710        0x1 /usr/m68k-ataribrown-elf/lib/m68020/softfp/libc.a(fgetpwent_r.o)
 .rodata        0x00086710      0x118 /usr/m68k-ataribrown-elf/lib/m68020/softfp/libc.a(_itoa.o)
 .rodata.str1.1
                0x00086828       0x10 /usr/m68k-ataribrown-elf/lib/m68020/softfp/libc.a(printf_fp.o)
 .rodata        0x00086838        0xc /usr/m68k-ataribrown-elf/lib/m68020/softfp/libc.a(printf_fp.o)
 .rodata.str1.1
                0x00086844       0x10 /usr/m68k-ataribrown-elf/lib/m68020/softfp/libc.a(printf_fphex.o)
 .rodata        0x00086844      0xea0 /usr/m68k-ataribrown-elf/lib/m68020/softfp/libc.a(fpioconst.o)
                0x00086844                __fpioconst_pow10
                0x00086914                ___tens
 .rodata.str1.1
                0x000876e4       0x6a /usr/m68k-ataribrown-elf/lib/m68020/softfp/libc.a(asctime.o)
                                 0x6d (size before relaxing)
 .rodata        0x0008774e       0x39 /usr/m68k-ataribrown-elf/lib/m68020/softfp/libc.a(asctime.o)
 .rodata.str1.1
                0x00087787      0x1e9 /usr/m68k-ataribrown-elf/lib/m68020/softfp/libc.a(strftime.o)
                                0x1ee (size before relaxing)
 .rodata        0x00087970       0xc8 /usr/m68k-ataribrown-elf/lib/m68020/softfp/libc.a(strftime.o)
 .rodata.str1.1
                0x00087a38      0x1e9 /usr/m68k-ataribrown-elf/lib/m68020/softfp/libc.a(setlocale.o)
                                  0x2 (size before relaxing)
 .rodata.str1.1
                0x00087a38        0x9 /usr/m68k-ataribrown-elf/lib/m68020/softfp/libc.a(strtod.o)
                                 0x11 (size before relaxing)
 *fill*         0x00087a41        0x1 
 .rodata        0x00087a42       0x68 /usr/m68k-ataribrown-elf/lib/m68020/softfp/libc.a(strtod.o)
 .rodata.str1.1
                0x00087aaa       0x11 /usr/m68k-ataribrown-elf/lib/m68020/softfp/libc.a(strtof.o)
 .rodata        0x00087aaa       0x68 /usr/m68k-ataribrown-elf/lib/m68020/softfp/libc.a(strtof.o)
 .rodata.str1.1
                0x00087b12       0x11 /usr/m68k-ataribrown-elf/lib/m68020/softfp/libc.a(strtold.o)
 .rodata        0x00087b12       0x8c /usr/m68k-ataribrown-elf/lib/m68020/softfp/libc.a(strtold.o)

.rodata1
 *(.rodata1)

.eh_frame_hdr
 *(.eh_frame_hdr)
 *(.eh_frame_entry .eh_frame_entry.*)

.eh_frame       0x00087ba0       0x58
 *(.eh_frame)
 .eh_frame      0x00087ba0       0x38 /lib/gcc/m68k-ataribrown-elf/6.2.0/m68020/softfp/libgcc.a(_udivdi3.o)
 .eh_frame      0x00087bd8       0x20 /lib/gcc/m68k-ataribrown-elf/6.2.0/m68020/softfp/libgcc.a(_umoddi3.o)
                                 0x38 (size before relaxing)
 *(.eh_frame.*)

.gcc_except_table
 *(.gcc_except_table .gcc_except_table.*)

.gnu_extab
 *(.gnu_extab*)

.exception_ranges
 *(.exception_ranges .exception_ranges*)
                0x00088000                . = DATA_SEGMENT_ALIGN (0x2000, 0x2000)

.eh_frame
 *(.eh_frame)
 *(.eh_frame.*)

.gnu_extab
 *(.gnu_extab)

.gcc_except_table
 *(.gcc_except_table .gcc_except_table.*)

.exception_ranges
 *(.exception_ranges .exception_ranges*)

.tdata
 *(.tdata .tdata.* .gnu.linkonce.td.*)

.tbss
 *(.tbss .tbss.* .gnu.linkonce.tb.*)
 *(.tcommon)

.preinit_array  0x00088000        0x0
                [!provide]                PROVIDE (__preinit_array_start, .)
 *(.preinit_array)
                [!provide]                PROVIDE (__preinit_array_end, .)

.init_array     0x00088000        0x0
                [!provide]                PROVIDE (__init_array_start, .)
 *(SORT(.init_array.*) SORT(.ctors.*))
 *(.init_array EXCLUDE_FILE(*crtend?.o *crtend.o *crtbegin?.o *crtbegin.o) .ctors)
                [!provide]                PROVIDE (__init_array_end, .)

.fini_array     0x00088000        0x0
                [!provide]                PROVIDE (__fini_array_start, .)
 *(SORT(.fini_array.*) SORT(.dtors.*))
 *(.fini_array EXCLUDE_FILE(*crtend?.o *crtend.o *crtbegin?.o *crtbegin.o) .dtors)
                [!provide]                PROVIDE (__fini_array_end, .)

.ctors
 *crtbegin.o(.ctors)
 *crtbegin?.o(.ctors)
 *(EXCLUDE_FILE(*crtend?.o *crtend.o) .ctors)
 *(SORT(.ctors.*))
 *(.ctors)

.dtors
 *crtbegin.o(.dtors)
 *crtbegin?.o(.dtors)
 *(EXCLUDE_FILE(*crtend?.o *crtend.o) .dtors)
 *(SORT(.dtors.*))
 *(.dtors)

.jcr
 *(.jcr)

.data.rel.ro
 *(.data.rel.ro.local* .gnu.linkonce.d.rel.ro.local.*)
 *(.data.rel.ro .data.rel.ro.* .gnu.linkonce.d.rel.ro.*)

.dynamic
 *(.dynamic)
                0x00088000                . = DATA_SEGMENT_RELRO_END (., 0x0)

.got
 *(.got.plt)
 *(.igot.plt)
 *(.got)
 *(.igot)

.data           0x00088000    0x24220
 *(.data .data.* .gnu.linkonce.d.*)
 .data.precache
                0x00088000        0x1 /tmp/ccWJ2D8E.ltrans0.ltrans.o
                0x00088000                _precache
 *fill*         0x00088001        0x1 
 .data.lastattackdown.6662
                0x00088002        0x4 /tmp/ccWJ2D8E.ltrans0.ltrans.o
 .data.oldhealth.6655
                0x00088006        0x4 /tmp/ccWJ2D8E.ltrans0.ltrans.o
 .data.largeammo.6671
                0x0008800a        0x4 /tmp/ccWJ2D8E.ltrans0.ltrans.o
 .data.wipegamestate
                0x0008800e        0x4 /tmp/ccWJ2D8E.ltrans0.ltrans.o
                0x0008800e                _wipegamestate
 .data.alphSwitchList
                0x00088012      0x334 /tmp/ccWJ2D8E.ltrans1.ltrans.o
 .data.animdefs
                0x00088346      0x1d4 /tmp/ccWJ2D8E.ltrans1.ltrans.o
 .data.sprnames
                0x0008851a      0x22c /tmp/ccWJ2D8E.ltrans1.ltrans.o
 .data.buf.6910
                0x00088746        0x2 /tmp/ccWJ2D8E.ltrans1.ltrans.o
 .data.newtick  0x00088748        0x1 /tmp/ccWJ2D8E.ltrans2.ltrans.o
                0x00088748                _newtick
 *fill*         0x00088749        0x1 
 .data.thintriangle_guy
                0x0008874a       0x30 /tmp/ccWJ2D8E.ltrans3.ltrans.o
 .data.player_arrow
                0x0008877a       0x70 /tmp/ccWJ2D8E.ltrans3.ltrans.o
 .data.cheat_player_arrow
                0x000887ea      0x100 /tmp/ccWJ2D8E.ltrans3.ltrans.o
 .data.oldgamestate.6737
                0x000888ea        0x4 /tmp/ccWJ2D8E.ltrans4.ltrans.o
 .data.DOOMPORT
                0x000888ee        0x4 /tmp/ccWJ2D8E.ltrans5.ltrans.o
 .data.default_sfxlump.6378
                0x000888f2        0x4 /tmp/ccWJ2D8E.ltrans5.ltrans.o
 .data.cheat_amap_seq
                0x000888f6        0x5 /tmp/ccWJ2D8E.ltrans6.ltrans.o
 *fill*         0x000888fb        0x1 
 .data.st_notify.5640
                0x000888fc       0x10 /tmp/ccWJ2D8E.ltrans6.ltrans.o
 .data.lastepisode.5677
                0x0008890c        0x4 /tmp/ccWJ2D8E.ltrans6.ltrans.o
 .data.lastlevel.5676
                0x00088910        0x4 /tmp/ccWJ2D8E.ltrans6.ltrans.o
 .data.cheat_amap
                0x00088914        0x8 /tmp/ccWJ2D8E.ltrans6.ltrans.o
 .data.rgbmode50_default
                0x0008891c       0x30 /tmp/ccWJ2D8E.ltrans8.ltrans.o
                0x0008891c                _rgbmode50_default
 .data.rgbmode50_ylod
                0x0008894c       0x30 /tmp/ccWJ2D8E.ltrans8.ltrans.o
 .data.vgamode_default
                0x0008897c       0x30 /tmp/ccWJ2D8E.ltrans8.ltrans.o
                0x0008897c                _vgamode_default
 .data.rgbmode50_full
                0x000889ac       0x30 /tmp/ccWJ2D8E.ltrans8.ltrans.o
 .data.rgbmode50_full_ylod
                0x000889dc       0x30 /tmp/ccWJ2D8E.ltrans8.ltrans.o
 .data.vgamode_full_xlod
                0x00088a0c       0x30 /tmp/ccWJ2D8E.ltrans8.ltrans.o
 .data.rgbmode50_titles
                0x00088a3c       0x30 /tmp/ccWJ2D8E.ltrans8.ltrans.o
 .data.vgamode_full
                0x00088a6c       0x30 /tmp/ccWJ2D8E.ltrans8.ltrans.o
 .data.vgamode_titles
                0x00088a9c       0x30 /tmp/ccWJ2D8E.ltrans8.ltrans.o
 .data.is32mhzclock
                0x00088acc        0x1 /tmp/ccWJ2D8E.ltrans8.ltrans.o
                0x00088acc                _is32mhzclock
 *fill*         0x00088acd        0x1 
 .data.setblocks
                0x00088ace        0x4 /tmp/ccWJ2D8E.ltrans8.ltrans.o
                0x00088ace                _setblocks
 .data.stopped.lto_priv.228
                0x00088ad2        0x1 /tmp/ccWJ2D8E.ltrans12.ltrans.o
                0x00088ad2                _stopped.lto_priv.228
 *fill*         0x00088ad3        0x1 
 .data.st_notify.5672.lto_priv.227
                0x00088ad4       0x10 /tmp/ccWJ2D8E.ltrans12.ltrans.o
                0x00088ad4                _st_notify.5672.lto_priv.227
 .data.dma_frame_pagemask
                0x00088ae4        0x2 /tmp/ccWJ2D8E.ltrans13.ltrans.o
                0x00088ae4                _dma_frame_pagemask
 .data.mobjinfo
                0x00088ae6     0x33c0 /tmp/ccWJ2D8E.ltrans14.ltrans.o
                0x00088ae6                _mobjinfo
 .data.scale_mtof.lto_priv.166
                0x0008bea6        0x4 /tmp/ccWJ2D8E.ltrans15.ltrans.o
                0x0008bea6                _scale_mtof.lto_priv.166
 .data.step_tab.lto_priv.270
                0x0008beaa     0x4000 /tmp/ccWJ2D8E.ltrans15.ltrans.o
                0x0008beaa                _step_tab.lto_priv.270
 .data.validcount
                0x0008feaa        0x2 /tmp/ccWJ2D8E.ltrans15.ltrans.o
                0x0008feaa                _validcount
 .data.g_rendertick
                0x0008feac        0x2 /tmp/ccWJ2D8E.ltrans17.ltrans.o
                0x0008feac                _g_rendertick
 .data.consoleplayer_sfx_timestamp
                0x0008feae        0x2 /tmp/ccWJ2D8E.ltrans17.ltrans.o
 .data.cheat_clev_seq
                0x0008feb0        0xa /tmp/ccWJ2D8E.ltrans18.ltrans.o
 .data.cheat_mypos_seq
                0x0008feba        0x8 /tmp/ccWJ2D8E.ltrans18.ltrans.o
 .data.cheat_choppers_seq
                0x0008fec2        0xb /tmp/ccWJ2D8E.ltrans18.ltrans.o
 .data.cheat_powerup_seq
                0x0008fecd       0x46 /tmp/ccWJ2D8E.ltrans18.ltrans.o
 .data.cheat_commercial_noclip_seq
                0x0008ff13        0x7 /tmp/ccWJ2D8E.ltrans18.ltrans.o
 .data.cheat_noclip_seq
                0x0008ff1a        0xb /tmp/ccWJ2D8E.ltrans18.ltrans.o
 .data.cheat_mus_seq
                0x0008ff25        0x9 /tmp/ccWJ2D8E.ltrans18.ltrans.o
 .data.cheat_ammo_seq
                0x0008ff2e        0x6 /tmp/ccWJ2D8E.ltrans18.ltrans.o
 .data.cheat_ammonokey_seq
                0x0008ff34        0x5 /tmp/ccWJ2D8E.ltrans18.ltrans.o
 .data.cheat_god_seq
                0x0008ff39        0x6 /tmp/ccWJ2D8E.ltrans18.ltrans.o
 *fill*         0x0008ff3f        0x1 
 .data.gamemode
                0x0008ff40        0x4 /tmp/ccWJ2D8E.ltrans18.ltrans.o
                0x0008ff40                _gamemode
 .data.cheat_clev
                0x0008ff44        0x8 /tmp/ccWJ2D8E.ltrans18.ltrans.o
 .data.cheat_mypos
                0x0008ff4c        0x8 /tmp/ccWJ2D8E.ltrans18.ltrans.o
 .data.cheat_choppers
                0x0008ff54        0x8 /tmp/ccWJ2D8E.ltrans18.ltrans.o
 .data.cheat_powerup
                0x0008ff5c       0x38 /tmp/ccWJ2D8E.ltrans18.ltrans.o
 .data.cheat_commercial_noclip
                0x0008ff94        0x8 /tmp/ccWJ2D8E.ltrans18.ltrans.o
 .data.cheat_noclip
                0x0008ff9c        0x8 /tmp/ccWJ2D8E.ltrans18.ltrans.o
 .data.cheat_mus
                0x0008ffa4        0x8 /tmp/ccWJ2D8E.ltrans18.ltrans.o
 .data.cheat_ammo
                0x0008ffac        0x8 /tmp/ccWJ2D8E.ltrans18.ltrans.o
 .data.cheat_ammonokey
                0x0008ffb4        0x8 /tmp/ccWJ2D8E.ltrans18.ltrans.o
 .data.cheat_god
                0x0008ffbc        0x8 /tmp/ccWJ2D8E.ltrans18.ltrans.o
 .data.S_music  0x0008ffc4      0x4d0 /tmp/ccWJ2D8E.ltrans18.ltrans.o
                0x0008ffc4                _S_music
 .data.g_song_on_refresh
                0x00090494        0x2 /tmp/ccWJ2D8E.ltrans18.ltrans.o
                0x00090494                _g_song_on_refresh
 .data.states   0x00090496     0x6a50 /tmp/ccWJ2D8E.ltrans18.ltrans.o
                0x00090496                _states
 .data.finesine
                0x00096ee6     0xa000 /tmp/ccWJ2D8E.ltrans18.ltrans.o
                0x00096ee6                _finesine
 .data.st_oldhealth.lto_priv.189
                0x000a0ee6        0x4 /tmp/ccWJ2D8E.ltrans19.ltrans.o
                0x000a0ee6                _st_oldhealth.lto_priv.189
 .data.st_stopped
                0x000a0eea        0x1 /tmp/ccWJ2D8E.ltrans19.ltrans.o
 *fill*         0x000a0eeb        0x1 
 .data.EpisodeMenu
                0x000a0eec       0x48 /tmp/ccWJ2D8E.ltrans20.ltrans.o
 .data.NewGameMenu
                0x000a0f34       0x5a /tmp/ccWJ2D8E.ltrans20.ltrans.o
 .data.OptionsMenu
                0x000a0f8e       0x90 /tmp/ccWJ2D8E.ltrans20.ltrans.o
 .data.ReadMenu1
                0x000a101e       0x12 /tmp/ccWJ2D8E.ltrans20.ltrans.o
                0x000a101e                _ReadMenu1
 .data.ReadMenu2
                0x000a1030       0x12 /tmp/ccWJ2D8E.ltrans20.ltrans.o
 .data.MainMenu
                0x000a1042       0x6c /tmp/ccWJ2D8E.ltrans20.ltrans.o
                0x000a1042                _MainMenu
 .data.chat_macros
                0x000a10ae       0x28 /tmp/ccWJ2D8E.ltrans20.ltrans.o
                0x000a10ae                _chat_macros
 .data.snd_MusicVolume
                0x000a10d6        0x4 /tmp/ccWJ2D8E.ltrans20.ltrans.o
                0x000a10d6                _snd_MusicVolume
 .data.EpiDef   0x000a10da       0x14 /tmp/ccWJ2D8E.ltrans20.ltrans.o
                0x000a10da                _EpiDef
 .data.NewDef   0x000a10ee       0x14 /tmp/ccWJ2D8E.ltrans20.ltrans.o
                0x000a10ee                _NewDef
 .data.msgNames
                0x000a1102       0x12 /tmp/ccWJ2D8E.ltrans20.ltrans.o
 .data.detailNames
                0x000a1114       0x12 /tmp/ccWJ2D8E.ltrans20.ltrans.o
 .data.OptionsDef
                0x000a1126       0x14 /tmp/ccWJ2D8E.ltrans20.ltrans.o
                0x000a1126                _OptionsDef
 .data.ReadDef1
                0x000a113a       0x14 /tmp/ccWJ2D8E.ltrans20.ltrans.o
                0x000a113a                _ReadDef1
 .data.ReadDef2
                0x000a114e       0x14 /tmp/ccWJ2D8E.ltrans20.ltrans.o
                0x000a114e                _ReadDef2
 .data.MainDef  0x000a1162       0x14 /tmp/ccWJ2D8E.ltrans20.ltrans.o
                0x000a1162                _MainDef
 .data.skullName
                0x000a1176       0x12 /tmp/ccWJ2D8E.ltrans20.ltrans.o
 .data.firsttime
                0x000a1188        0x4 /tmp/ccWJ2D8E.ltrans20.ltrans.o
 .data.followplayer.lto_priv.183
                0x000a118c        0x4 /tmp/ccWJ2D8E.ltrans20.ltrans.o
                0x000a118c                _followplayer.lto_priv.183
 .data.SaveMenu
                0x000a1190       0x6c /tmp/ccWJ2D8E.ltrans21.ltrans.o
 .data.SoundMenu
                0x000a11fc       0x48 /tmp/ccWJ2D8E.ltrans21.ltrans.o
 .data.LoadDef  0x000a1244       0x14 /tmp/ccWJ2D8E.ltrans21.ltrans.o
 .data.LoadMenu
                0x000a1258       0x6c /tmp/ccWJ2D8E.ltrans21.ltrans.o
 .data.SaveDef  0x000a12c4       0x14 /tmp/ccWJ2D8E.ltrans21.ltrans.o
 .data.SoundDef
                0x000a12d8       0x14 /tmp/ccWJ2D8E.ltrans21.ltrans.o
 .data.s_pass   0x000a12ec        0x2 /tmp/ccWJ2D8E.ltrans22.ltrans.o
 .data.epsd2animinfo.lto_priv.126
                0x000a12ee      0x150 /tmp/ccWJ2D8E.ltrans23.ltrans.o
                0x000a12ee                _epsd2animinfo.lto_priv.126
 .data.epsd1animinfo.lto_priv.125
                0x000a143e      0x1f8 /tmp/ccWJ2D8E.ltrans23.ltrans.o
                0x000a143e                _epsd1animinfo.lto_priv.125
 .data.epsd0animinfo.lto_priv.124
                0x000a1636      0x230 /tmp/ccWJ2D8E.ltrans23.ltrans.o
                0x000a1636                _epsd0animinfo.lto_priv.124
 .data.env_dsg  0x000a1866      0x102 /tmp/ccWJ2D8E.ltrans28.ltrans.o
 .data.fade_strings
                0x000a1968        0xa /tmp/ccWJ2D8E.ltrans28.ltrans.o
 .data.fade_piano
                0x000a1972        0x6 /tmp/ccWJ2D8E.ltrans28.ltrans.o
 .data.S_sfx    0x000a1978     0xa15e /tmp/ccWJ2D8E.ltrans28.ltrans.o
                0x000a1978                _S_sfx
 .data.snd_SfxVolume
                0x000abad6        0x4 /tmp/ccWJ2D8E.ltrans28.ltrans.o
                0x000abad6                _snd_SfxVolume
 .data.forwardmove
                0x000abada        0x8 /tmp/ccWJ2D8E.ltrans30.ltrans.o
                0x000abada                _forwardmove
 .data.sidemove
                0x000abae2        0x8 /tmp/ccWJ2D8E.ltrans30.ltrans.o
                0x000abae2                _sidemove
 *fill*         0x000abaea        0x2 
 .data          0x000abaec        0x8 /usr/m68k-ataribrown-elf/lib/m68020/softfp/libc.a(crtinit.o)
 .data          0x000abaf4      0x404 /usr/m68k-ataribrown-elf/lib/m68020/softfp/libc.a(ctype.o)
                0x000abaf4                __ctype
 .data          0x000abef8      0x12a /usr/m68k-ataribrown-elf/lib/m68020/softfp/libc.a(globals.o)
                0x000abef8                ___stdio_head
                0x000abefc                _stderr
                0x000abf54                _stdout
                0x000abfac                _stdin
                0x000ac004                _program_invocation_short_name
                0x000ac008                _program_invocation_name
                0x000ac00c                __app
                0x000ac00e                ___libc_argv
                0x000ac01a                ___libc_argc
                0x000ac01e                ___libc_enable_secure
 *fill*         0x000ac022        0x2 
 .data          0x000ac024       0x14 /usr/m68k-ataribrown-elf/lib/m68020/softfp/libc.a(malloc.o)
                0x000ac024                __mchunk_free_list
 .data          0x000ac038        0x4 /usr/m68k-ataribrown-elf/lib/m68020/softfp/libc.a(stksiz.o)
                0x000ac038                __stksize
 .data          0x000ac03c       0x16 /usr/m68k-ataribrown-elf/lib/m68020/softfp/libc.a(strerror.o)
                0x000ac04e                __sys_nerr
                0x000ac04e                _sys_nerr
 *fill*         0x000ac052        0x2 
 .data          0x000ac054        0x2 /usr/m68k-ataribrown-elf/lib/m68020/softfp/libc.a(getgid.o)
 *fill*         0x000ac056        0x2 
 .data          0x000ac058        0x8 /usr/m68k-ataribrown-elf/lib/m68020/softfp/libc.a(ioctl.o)
                0x000ac058                __ldisc
                0x000ac05c                __ttydisc
 .data          0x000ac060        0x4 /usr/m68k-ataribrown-elf/lib/m68020/softfp/libc.a(open.o)
                0x000ac060                ___current_umask
 .data          0x000ac064       0x10 /usr/m68k-ataribrown-elf/lib/m68020/softfp/libc.a(read.o)
                0x000ac068                ___ltchars
                0x000ac06e                ___tchars
 .data          0x000ac074        0x4 /usr/m68k-ataribrown-elf/lib/m68020/softfp/libc.a(gethostnamadr.o)
 .data          0x000ac078        0x4 /usr/m68k-ataribrown-elf/lib/m68020/softfp/libc.a(res_send.o)
 .data          0x000ac07c        0x2 /usr/m68k-ataribrown-elf/lib/m68020/softfp/libc.a(sockets_global.o)
                0x000ac07c                ___libc_newsockets
 *fill*         0x000ac07e        0x2 
 .data          0x000ac080        0x4 /usr/m68k-ataribrown-elf/lib/m68020/softfp/libc.a(inode.o)
                0x000ac080                ___inode
 .data          0x000ac084        0xc /usr/m68k-ataribrown-elf/lib/m68020/softfp/libc.a(localtime.o)
                0x000ac084                _tzname
 .data          0x000ac090        0x2 /usr/m68k-ataribrown-elf/lib/m68020/softfp/libc.a(getegid.o)
 *fill*         0x000ac092        0x2 
 .data          0x000ac094        0x2 /usr/m68k-ataribrown-elf/lib/m68020/softfp/libc.a(geteuid.o)
 *fill*         0x000ac096        0x2 
 .data          0x000ac098        0x2 /usr/m68k-ataribrown-elf/lib/m68020/softfp/libc.a(getpid.o)
 *fill*         0x000ac09a        0x2 
 .data          0x000ac09c        0x2 /usr/m68k-ataribrown-elf/lib/m68020/softfp/libc.a(kill.o)
 *fill*         0x000ac09e        0x2 
 .data          0x000ac0a0      0x15e /usr/m68k-ataribrown-elf/lib/m68020/softfp/libc.a(res_init.o)
                0x000ac0a0                __res
 *fill*         0x000ac1fe        0x2 
 .data          0x000ac200        0x4 /usr/m68k-ataribrown-elf/lib/m68020/softfp/libc.a(gettimeofday.o)
 .data          0x000ac204       0x1c /lib/gcc/m68k-ataribrown-elf/6.2.0/m68020/softfp/libgcc.a(_floatex.o)
                0x000ac204                __fpCCR

DATA            0x000ac220    0x114c0
                [!provide]                PROVIDE (__start_DATA, .)
 DATA           0x000ac220    0x114c0 ../bmengine/libbmengine.a(bmengine.o)
                0x000ac4b8                _midi_callback_ptr
                0x000ac4bc                raster_callback_ptr
                0x000ac4c8                _bm_physbase
                0x000afc54                _BM_TextureTranslation
                0x000b075a                _bm_tempvar
                0x000b46e4                _jpad0
                0x000b46e8                _jpad1
                [!provide]                PROVIDE (__stop_DATA, .)

.data1
 *(.data1)
                0x000bd6e0                _edata = .
                [!provide]                PROVIDE (edata, .)
                0x000bd6e0                . = .
                0x000bd6e0                __bss_start = .

.bss            0x000bd6e0    0x40d1c
 *(.dynbss)
 *(.bss .bss.* .gnu.linkonce.b.*)
 .bss.save_p    0x000bd6e0        0x4 /tmp/ccWJ2D8E.ltrans0.ltrans.o
 .bss.savebuffer
                0x000bd6e4        0x4 /tmp/ccWJ2D8E.ltrans0.ltrans.o
 .bss.defdemoname
                0x000bd6e8        0x4 /tmp/ccWJ2D8E.ltrans0.ltrans.o
                0x000bd6e8                _defdemoname
 .bss.bstar.lto_priv.248
                0x000bd6ec        0x4 /tmp/ccWJ2D8E.ltrans0.ltrans.o
                0x000bd6ec                _bstar.lto_priv.248
 .bss.star.lto_priv.247
                0x000bd6f0        0x4 /tmp/ccWJ2D8E.ltrans0.ltrans.o
                0x000bd6f0                _star.lto_priv.247
 .bss.statcopy  0x000bd6f4        0x4 /tmp/ccWJ2D8E.ltrans0.ltrans.o
                0x000bd6f4                _statcopy
 .bss.totalsecret
                0x000bd6f8        0x4 /tmp/ccWJ2D8E.ltrans0.ltrans.o
                0x000bd6f8                _totalsecret
 .bss.totalitems
                0x000bd6fc        0x4 /tmp/ccWJ2D8E.ltrans0.ltrans.o
                0x000bd6fc                _totalitems
 .bss.totalkills
                0x000bd700        0x4 /tmp/ccWJ2D8E.ltrans0.ltrans.o
                0x000bd700                _totalkills
 .bss.demoend   0x000bd704        0x4 /tmp/ccWJ2D8E.ltrans0.ltrans.o
                0x000bd704                _demoend
 .bss.gamekeydown
                0x000bd708      0x100 /tmp/ccWJ2D8E.ltrans0.ltrans.o
                0x000bd708                _gamekeydown
 .bss.lastcalc.6654
                0x000bd808        0x4 /tmp/ccWJ2D8E.ltrans0.ltrans.o
 .bss.st_facecount
                0x000bd80c        0x4 /tmp/ccWJ2D8E.ltrans0.ltrans.o
 .bss.priority.6663
                0x000bd810        0x4 /tmp/ccWJ2D8E.ltrans0.ltrans.o
 .bss.st_msgcounter
                0x000bd814        0x4 /tmp/ccWJ2D8E.ltrans0.ltrans.o
 .bss.st_randomnumber
                0x000bd818        0x4 /tmp/ccWJ2D8E.ltrans0.ltrans.o
 .bss.max_scale_mtof.lto_priv.258
                0x000bd81c        0x4 /tmp/ccWJ2D8E.ltrans0.ltrans.o
                0x000bd81c                _max_scale_mtof.lto_priv.258
 .bss.mtof_zoommul.lto_priv.250
                0x000bd820        0x4 /tmp/ccWJ2D8E.ltrans0.ltrans.o
                0x000bd820                _mtof_zoommul.lto_priv.250
 .bss.ftom_zoommul.lto_priv.251
                0x000bd824        0x4 /tmp/ccWJ2D8E.ltrans0.ltrans.o
                0x000bd824                _ftom_zoommul.lto_priv.251
 .bss.amclock.lto_priv.256
                0x000bd828        0x4 /tmp/ccWJ2D8E.ltrans0.ltrans.o
                0x000bd828                _amclock.lto_priv.256
 .bss.shiftxform
                0x000bd82c        0x4 /tmp/ccWJ2D8E.ltrans0.ltrans.o
                0x000bd82c                _shiftxform
 .bss.chat_dest
                0x000bd830        0x4 /tmp/ccWJ2D8E.ltrans0.ltrans.o
 .bss.message_counter.lto_priv.263
                0x000bd834        0x4 /tmp/ccWJ2D8E.ltrans0.ltrans.o
                0x000bd834                _message_counter.lto_priv.263
 .bss.castattacking
                0x000bd838        0x1 /tmp/ccWJ2D8E.ltrans0.ltrans.o
                0x000bd838                _castattacking
 *fill*         0x000bd839        0x1 
 .bss.castonmelee
                0x000bd83a        0x4 /tmp/ccWJ2D8E.ltrans0.ltrans.o
                0x000bd83a                _castonmelee
 .bss.castframes
                0x000bd83e        0x4 /tmp/ccWJ2D8E.ltrans0.ltrans.o
                0x000bd83e                _castframes
 .bss.castdeath
                0x000bd842        0x1 /tmp/ccWJ2D8E.ltrans0.ltrans.o
                0x000bd842                _castdeath
 *fill*         0x000bd843        0x1 
 .bss.caststate
                0x000bd844        0x4 /tmp/ccWJ2D8E.ltrans0.ltrans.o
                0x000bd844                _caststate
 .bss.castnum   0x000bd848        0x4 /tmp/ccWJ2D8E.ltrans0.ltrans.o
                0x000bd848                _castnum
 .bss.finaletext.lto_priv.267
                0x000bd84c        0x4 /tmp/ccWJ2D8E.ltrans0.ltrans.o
                0x000bd84c                _finaletext.lto_priv.267
 .bss.casttics  0x000bd850        0x4 /tmp/ccWJ2D8E.ltrans0.ltrans.o
                0x000bd850                _casttics
 .bss.finalestage
                0x000bd854        0x4 /tmp/ccWJ2D8E.ltrans0.ltrans.o
                0x000bd854                _finalestage
 .bss.finalecount
                0x000bd858        0x4 /tmp/ccWJ2D8E.ltrans0.ltrans.o
                0x000bd858                _finalecount
 .bss.pagetic   0x000bd85c        0x4 /tmp/ccWJ2D8E.ltrans0.ltrans.o
                0x000bd85c                _pagetic
 .bss.savegameslot
                0x000bd860        0x4 /tmp/ccWJ2D8E.ltrans0.ltrans.o
                0x000bd860                _savegameslot
 .bss.savedescription
                0x000bd864       0x20 /tmp/ccWJ2D8E.ltrans0.ltrans.o
                0x000bd864                _savedescription
 .bss.consistancy
                0x000bd884       0x60 /tmp/ccWJ2D8E.ltrans0.ltrans.o
                0x000bd884                _consistancy
 .bss.turbomessage.6740
                0x000bd8e4       0x50 /tmp/ccWJ2D8E.ltrans0.ltrans.o
 .bss.netcmds   0x000bd934      0x1e0 /tmp/ccWJ2D8E.ltrans0.ltrans.o
                0x000bd934                _netcmds
 .bss.ticdup    0x000bdb14        0x4 /tmp/ccWJ2D8E.ltrans0.ltrans.o
                0x000bdb14                _ticdup
 .bss.wminfo    0x000bdb18       0xc8 /tmp/ccWJ2D8E.ltrans0.ltrans.o
                0x000bdb18                _wminfo
 .bss.dirtybox  0x000bdbe0       0x10 /tmp/ccWJ2D8E.ltrans1.ltrans.o
                0x000bdbe0                _dirtybox
 .bss.quickSaveSlot
                0x000bdbf0        0x4 /tmp/ccWJ2D8E.ltrans1.ltrans.o
                0x000bdbf0                _quickSaveSlot
 .bss.skullAnimCounter
                0x000bdbf4        0x2 /tmp/ccWJ2D8E.ltrans1.ltrans.o
                0x000bdbf4                _skullAnimCounter
 .bss.lastflat  0x000bdbf6        0x4 /tmp/ccWJ2D8E.ltrans1.ltrans.o
 .bss.spritetopoffset
                0x000bdbfa        0x4 /tmp/ccWJ2D8E.ltrans1.ltrans.o
                0x000bdbfa                _spritetopoffset
 .bss.spriteoffset
                0x000bdbfe        0x4 /tmp/ccWJ2D8E.ltrans1.ltrans.o
                0x000bdbfe                _spriteoffset
 .bss.spritewidth
                0x000bdc02        0x4 /tmp/ccWJ2D8E.ltrans1.ltrans.o
                0x000bdc02                _spritewidth
 .bss.numspritelumps
                0x000bdc06        0x4 /tmp/ccWJ2D8E.ltrans1.ltrans.o
 .bss.colormaps
                0x000bdc0a        0x4 /tmp/ccWJ2D8E.ltrans1.ltrans.o
                0x000bdc0a                _colormaps
 .bss.framecount
                0x000bdc0e        0x4 /tmp/ccWJ2D8E.ltrans1.ltrans.o
                0x000bdc0e                _framecount
 .bss.lastspritelump
                0x000bdc12        0x4 /tmp/ccWJ2D8E.ltrans1.ltrans.o
 .bss.negonearray
                0x000bdc16      0x280 /tmp/ccWJ2D8E.ltrans1.ltrans.o
                0x000bdc16                _negonearray
 .bss.sbar.lto_priv.245
                0x000bde96        0x4 /tmp/ccWJ2D8E.ltrans1.ltrans.o
                0x000bde96                _sbar.lto_priv.245
 .bss.faceback.lto_priv.246
                0x000bde9a        0x4 /tmp/ccWJ2D8E.ltrans1.ltrans.o
                0x000bde9a                _faceback.lto_priv.246
 .bss.singletics
                0x000bde9e        0x1 /tmp/ccWJ2D8E.ltrans1.ltrans.o
                0x000bde9e                _singletics
 .bss.nodrawers
                0x000bde9f        0x1 /tmp/ccWJ2D8E.ltrans1.ltrans.o
                0x000bde9f                _nodrawers
 .bss.os_timera.lto_priv.275
                0x000bdea0        0x4 /tmp/ccWJ2D8E.ltrans1.ltrans.o
                0x000bdea0                _os_timera.lto_priv.275
 .bss.isrunning.lto_priv.274
                0x000bdea4        0x4 /tmp/ccWJ2D8E.ltrans1.ltrans.o
                0x000bdea4                _isrunning.lto_priv.274
 .bss.isopen.lto_priv.273
                0x000bdea8        0x4 /tmp/ccWJ2D8E.ltrans1.ltrans.o
                0x000bdea8                _isopen.lto_priv.273
 .bss.wadfiles  0x000bdeac       0x50 /tmp/ccWJ2D8E.ltrans1.ltrans.o
                0x000bdeac                _wadfiles
 .bss.autostart
                0x000bdefc        0x1 /tmp/ccWJ2D8E.ltrans1.ltrans.o
                0x000bdefc                _autostart
 *fill*         0x000bdefd        0x1 
 .bss.startmap  0x000bdefe        0x4 /tmp/ccWJ2D8E.ltrans1.ltrans.o
                0x000bdefe                _startmap
 .bss.startepisode
                0x000bdf02        0x4 /tmp/ccWJ2D8E.ltrans1.ltrans.o
                0x000bdf02                _startepisode
 .bss.startskill
                0x000bdf06        0x4 /tmp/ccWJ2D8E.ltrans1.ltrans.o
                0x000bdf06                _startskill
 .bss.basedefault
                0x000bdf0a      0x400 /tmp/ccWJ2D8E.ltrans1.ltrans.o
 .bss.title     0x000be30a       0x80 /tmp/ccWJ2D8E.ltrans1.ltrans.o
 .bss.devparm   0x000be38a        0x1 /tmp/ccWJ2D8E.ltrans1.ltrans.o
                0x000be38a                _devparm
 .bss.modifiedgame
                0x000be38b        0x1 /tmp/ccWJ2D8E.ltrans1.ltrans.o
 .bss.spritememory
                0x000be38c        0x4 /tmp/ccWJ2D8E.ltrans2.ltrans.o
 .bss.numsprites
                0x000be390        0x4 /tmp/ccWJ2D8E.ltrans2.ltrans.o
                0x000be390                _numsprites
 .bss.texturememory
                0x000be394        0x4 /tmp/ccWJ2D8E.ltrans2.ltrans.o
 .bss.flatmemory
                0x000be398        0x4 /tmp/ccWJ2D8E.ltrans2.ltrans.o
 .bss.numflats  0x000be39c        0x4 /tmp/ccWJ2D8E.ltrans2.ltrans.o
                0x000be39c                _numflats
 .bss.segs      0x000be3a0        0x4 /tmp/ccWJ2D8E.ltrans2.ltrans.o
 .bss.numsegs   0x000be3a4        0x4 /tmp/ccWJ2D8E.ltrans2.ltrans.o
 .bss.numsubsectors
                0x000be3a8        0x4 /tmp/ccWJ2D8E.ltrans2.ltrans.o
 .bss.numsides  0x000be3ac        0x4 /tmp/ccWJ2D8E.ltrans2.ltrans.o
 .bss.firstflat
                0x000be3b0        0x4 /tmp/ccWJ2D8E.ltrans2.ltrans.o
                0x000be3b0                _firstflat
 .bss.vertexes  0x000be3b4        0x4 /tmp/ccWJ2D8E.ltrans2.ltrans.o
                0x000be3b4                _vertexes
 .bss.numvertexes
                0x000be3b8        0x4 /tmp/ccWJ2D8E.ltrans2.ltrans.o
                0x000be3b8                _numvertexes
 .bss.reloadlump
                0x000be3bc        0x4 /tmp/ccWJ2D8E.ltrans2.ltrans.o
                0x000be3bc                _reloadlump
 .bss.lasttick  0x000be3c0        0x4 /tmp/ccWJ2D8E.ltrans2.ltrans.o
                0x000be3c0                _lasttick
 .bss.myticks   0x000be3c4        0x4 /tmp/ccWJ2D8E.ltrans2.ltrans.o
                0x000be3c4                _myticks
 .bss.piscacheheight
                0x000be3c8        0x2 /tmp/ccWJ2D8E.ltrans2.ltrans.o
 .bss.basetime.6088.lto_priv.249
                0x000be3ca        0x4 /tmp/ccWJ2D8E.ltrans2.ltrans.o
                0x000be3ca                _basetime.6088.lto_priv.249
 .bss.joyarray  0x000be3ce        0x5 /tmp/ccWJ2D8E.ltrans2.ltrans.o
                0x000be3ce                _joyarray
 .bss.mousearray
                0x000be3d3        0x4 /tmp/ccWJ2D8E.ltrans2.ltrans.o
                0x000be3d3                _mousearray
 .bss.sendpause
                0x000be3d7        0x1 /tmp/ccWJ2D8E.ltrans2.ltrans.o
                0x000be3d7                _sendpause
 .bss.sendsave  0x000be3d8        0x1 /tmp/ccWJ2D8E.ltrans2.ltrans.o
                0x000be3d8                _sendsave
 *fill*         0x000be3d9        0x1 
 .bss.mousex    0x000be3da        0x4 /tmp/ccWJ2D8E.ltrans2.ltrans.o
                0x000be3da                _mousex
 .bss.mousey    0x000be3de        0x4 /tmp/ccWJ2D8E.ltrans2.ltrans.o
                0x000be3de                _mousey
 .bss.joyxmove  0x000be3e2        0x4 /tmp/ccWJ2D8E.ltrans2.ltrans.o
                0x000be3e2                _joyxmove
 .bss.joyymove  0x000be3e6        0x4 /tmp/ccWJ2D8E.ltrans2.ltrans.o
                0x000be3e6                _joyymove
 .bss.displayplayer
                0x000be3ea        0x4 /tmp/ccWJ2D8E.ltrans2.ltrans.o
                0x000be3ea                _displayplayer
 .bss.skytexture
                0x000be3ee        0x4 /tmp/ccWJ2D8E.ltrans2.ltrans.o
 .bss.marknums.lto_priv.171
                0x000be3f2       0x28 /tmp/ccWJ2D8E.ltrans3.ltrans.o
                0x000be3f2                _marknums.lto_priv.171
 .bss.markpoints.lto_priv.253
                0x000be41a       0x50 /tmp/ccWJ2D8E.ltrans3.ltrans.o
                0x000be41a                _markpoints.lto_priv.253
 .bss.singledemo
                0x000be46a        0x1 /tmp/ccWJ2D8E.ltrans3.ltrans.o
                0x000be46a                _singledemo
 *fill*         0x000be46b        0x1 
 .bss.numlines  0x000be46c        0x4 /tmp/ccWJ2D8E.ltrans3.ltrans.o
                0x000be46c                _numlines
 .bss.plr.lto_priv.179
                0x000be470        0x4 /tmp/ccWJ2D8E.ltrans3.ltrans.o
                0x000be470                _plr.lto_priv.179
 .bss.lightlev.lto_priv.257
                0x000be474        0x4 /tmp/ccWJ2D8E.ltrans3.ltrans.o
                0x000be474                _lightlev.lto_priv.257
 .bss.l.5803    0x000be478       0x10 /tmp/ccWJ2D8E.ltrans3.ltrans.o
 .bss.m_h.lto_priv.170
                0x000be488        0x4 /tmp/ccWJ2D8E.ltrans3.ltrans.o
                0x000be488                _m_h.lto_priv.170
 .bss.m_w.lto_priv.169
                0x000be48c        0x4 /tmp/ccWJ2D8E.ltrans3.ltrans.o
                0x000be48c                _m_w.lto_priv.169
 .bss.cheating.lto_priv.254
                0x000be490        0x4 /tmp/ccWJ2D8E.ltrans3.ltrans.o
                0x000be490                _cheating.lto_priv.254
 .bss.grid.lto_priv.252
                0x000be494        0x4 /tmp/ccWJ2D8E.ltrans3.ltrans.o
                0x000be494                _grid.lto_priv.252
 .bss.am_clearcount.lto_priv.255
                0x000be498        0x2 /tmp/ccWJ2D8E.ltrans3.ltrans.o
                0x000be498                _am_clearcount.lto_priv.255
 .bss.fb        0x000be49a        0x4 /tmp/ccWJ2D8E.ltrans3.ltrans.o
 .bss.undraw_buffer
                0x000be49e        0x4 /tmp/ccWJ2D8E.ltrans3.ltrans.o
 .bss.undraw_buffers
                0x000be4a2    0x10008 /tmp/ccWJ2D8E.ltrans3.ltrans.o
                0x000be4a2                _undraw_buffers
 .bss.active_buffer
                0x000ce4aa        0x4 /tmp/ccWJ2D8E.ltrans3.ltrans.o
 .bss.xres      0x000ce4ae        0x2 /tmp/ccWJ2D8E.ltrans4.ltrans.o
                0x000ce4ae                _xres
 .bss.yres      0x000ce4b0        0x2 /tmp/ccWJ2D8E.ltrans4.ltrans.o
                0x000ce4b0                _yres
 .bss.active_videoprofile.lto_priv.268
                0x000ce4b2        0x4 /tmp/ccWJ2D8E.ltrans4.ltrans.o
                0x000ce4b2                _active_videoprofile.lto_priv.268
 .bss.videobuffers_allocs
                0x000ce4b6        0xc /tmp/ccWJ2D8E.ltrans4.ltrans.o
 .bss.videoprofile_default
                0x000ce4c2        0x4 /tmp/ccWJ2D8E.ltrans4.ltrans.o
 .bss.valloc    0x000ce4c6        0x4 /tmp/ccWJ2D8E.ltrans4.ltrans.o
 .bss.jpad      0x000ce4ca        0x4 /tmp/ccWJ2D8E.ltrans4.ltrans.o
                0x000ce4ca                _jpad
 .bss.skiptics  0x000ce4ce        0x4 /tmp/ccWJ2D8E.ltrans4.ltrans.o
                0x000ce4ce                _skiptics
 .bss.frameskip
                0x000ce4d2       0x10 /tmp/ccWJ2D8E.ltrans4.ltrans.o
 .bss.oldnettics
                0x000ce4e2        0x4 /tmp/ccWJ2D8E.ltrans4.ltrans.o
 .bss.gametime  0x000ce4e6        0x4 /tmp/ccWJ2D8E.ltrans4.ltrans.o
                0x000ce4e6                _gametime
 .bss.nodeforplayer
                0x000ce4ea       0x10 /tmp/ccWJ2D8E.ltrans4.ltrans.o
                0x000ce4ea                _nodeforplayer
 .bss.frameon   0x000ce4fa        0x4 /tmp/ccWJ2D8E.ltrans4.ltrans.o
 .bss.nettics   0x000ce4fe       0x20 /tmp/ccWJ2D8E.ltrans4.ltrans.o
                0x000ce4fe                _nettics
 .bss.oldentertics.4525
                0x000ce51e        0x4 /tmp/ccWJ2D8E.ltrans4.ltrans.o
 .bss.viewangle
                0x000ce522        0x4 /tmp/ccWJ2D8E.ltrans4.ltrans.o
 .bss.fixedcolormap
                0x000ce526        0x4 /tmp/ccWJ2D8E.ltrans4.ltrans.o
 .bss.viewplayer
                0x000ce52a        0x4 /tmp/ccWJ2D8E.ltrans4.ltrans.o
 .bss.videobuffers
                0x000ce52e        0xc /tmp/ccWJ2D8E.ltrans4.ltrans.o
                0x000ce52e                _videobuffers
 .bss.active_backbuffer
                0x000ce53a        0x2 /tmp/ccWJ2D8E.ltrans4.ltrans.o
                0x000ce53a                _active_backbuffer
 .bss.laststage.5541
                0x000ce53c        0x4 /tmp/ccWJ2D8E.ltrans4.ltrans.o
 .bss.menuactivestate.6734
                0x000ce540        0x1 /tmp/ccWJ2D8E.ltrans4.ltrans.o
 .bss.viewactivestate.6733
                0x000ce541        0x1 /tmp/ccWJ2D8E.ltrans4.ltrans.o
 .bss.inhelpscreensstate.6735
                0x000ce542        0x1 /tmp/ccWJ2D8E.ltrans4.ltrans.o
 .bss.fullscreen.6736
                0x000ce543        0x1 /tmp/ccWJ2D8E.ltrans4.ltrans.o
 .bss.borderdrawcount.6738
                0x000ce544        0x4 /tmp/ccWJ2D8E.ltrans4.ltrans.o
 .bss.vp_front  0x000ce548        0x4 /tmp/ccWJ2D8E.ltrans4.ltrans.o
                0x000ce548                _vp_front
 .bss.os_physbase.lto_priv.290
                0x000ce54c        0x4 /tmp/ccWJ2D8E.ltrans4.ltrans.o
                0x000ce54c                _os_physbase.lto_priv.290
 .bss.os_logbase.lto_priv.289
                0x000ce550        0x4 /tmp/ccWJ2D8E.ltrans4.ltrans.o
                0x000ce550                _os_logbase.lto_priv.289
 .bss.os_modecode.lto_priv.288
                0x000ce554        0x2 /tmp/ccWJ2D8E.ltrans4.ltrans.o
                0x000ce554                _os_modecode.lto_priv.288
 .bss.os_palette.lto_priv.287
                0x000ce556      0x400 /tmp/ccWJ2D8E.ltrans4.ltrans.o
                0x000ce556                _os_palette.lto_priv.287
 .bss.os_linewidth.lto_priv.286
                0x000ce956        0x2 /tmp/ccWJ2D8E.ltrans4.ltrans.o
                0x000ce956                _os_linewidth.lto_priv.286
 .bss.os_videoprofile.lto_priv.285
                0x000ce958       0x30 /tmp/ccWJ2D8E.ltrans4.ltrans.o
                0x000ce958                _os_videoprofile.lto_priv.285
 .bss.displaying
                0x000ce988        0x2 /tmp/ccWJ2D8E.ltrans4.ltrans.o
                0x000ce988                _displaying
 .bss.resendcount
                0x000ce98a       0x20 /tmp/ccWJ2D8E.ltrans5.ltrans.o
 .bss.exitmsg   0x000ce9aa       0x50 /tmp/ccWJ2D8E.ltrans5.ltrans.o
 .bss.localcmds
                0x000ce9fa       0x78 /tmp/ccWJ2D8E.ltrans5.ltrans.o
 .bss.reboundstore
                0x000cea72       0x80 /tmp/ccWJ2D8E.ltrans5.ltrans.o
                0x000cea72                _reboundstore
 .bss.reboundpacket
                0x000ceaf2        0x1 /tmp/ccWJ2D8E.ltrans5.ltrans.o
                0x000ceaf2                _reboundpacket
 *fill*         0x000ceaf3        0x1 
 .bss.resendto  0x000ceaf4       0x20 /tmp/ccWJ2D8E.ltrans5.ltrans.o
 .bss.remoteresend
                0x000ceb14        0x8 /tmp/ccWJ2D8E.ltrans5.ltrans.o
 .bss.netsend   0x000ceb1c        0x4 /tmp/ccWJ2D8E.ltrans5.ltrans.o
                0x000ceb1c                _netsend
 .bss.netget    0x000ceb20        0x4 /tmp/ccWJ2D8E.ltrans5.ltrans.o
                0x000ceb20                _netget
 .bss.s_mixcmd  0x000ceb24      0xd10 /tmp/ccWJ2D8E.ltrans5.ltrans.o
 .bss.s_resamples
                0x000cf834     0x1410 /tmp/ccWJ2D8E.ltrans5.ltrans.o
 .bss.channel_pool
                0x000d0c44     0x11d0 /tmp/ccWJ2D8E.ltrans5.ltrans.o
 .bss._volume_luts
                0x000d1e14     0x4400 /tmp/ccWJ2D8E.ltrans5.ltrans.o
 .bss.mux_buffer_pages
                0x000d6214        0x4 /tmp/ccWJ2D8E.ltrans5.ltrans.o
                0x000d6214                _mux_buffer_pages
 .bss.dummy_source
                0x000d6218      0x400 /tmp/ccWJ2D8E.ltrans5.ltrans.o
 .bss.lengths   0x000d6618      0x3fc /tmp/ccWJ2D8E.ltrans5.ltrans.o
 .bss.lastx.6957
                0x000d6a14        0x4 /tmp/ccWJ2D8E.ltrans6.ltrans.o
 .bss.mousex.6956
                0x000d6a18        0x4 /tmp/ccWJ2D8E.ltrans6.ltrans.o
 .bss.lasty.6955
                0x000d6a1c        0x4 /tmp/ccWJ2D8E.ltrans6.ltrans.o
 .bss.mousey.6954
                0x000d6a20        0x4 /tmp/ccWJ2D8E.ltrans6.ltrans.o
 .bss.mousewait.6953
                0x000d6a24        0x4 /tmp/ccWJ2D8E.ltrans6.ltrans.o
 .bss.joywait.6952
                0x000d6a28        0x4 /tmp/ccWJ2D8E.ltrans6.ltrans.o
 .bss.lastmessage.5383
                0x000d6a2c       0x51 /tmp/ccWJ2D8E.ltrans6.ltrans.o
 *fill*         0x000d6a7d        0x1 
 .bss.num_nobrainers.5392
                0x000d6a7e        0x4 /tmp/ccWJ2D8E.ltrans6.ltrans.o
 .bss.altdown.5387
                0x000d6a82        0x1 /tmp/ccWJ2D8E.ltrans6.ltrans.o
 .bss.shiftdown.5386
                0x000d6a83        0x1 /tmp/ccWJ2D8E.ltrans6.ltrans.o
 .bss.buffer.5690
                0x000d6a84       0x14 /tmp/ccWJ2D8E.ltrans6.ltrans.o
 .bss.markpointnum
                0x000d6a98        0x4 /tmp/ccWJ2D8E.ltrans6.ltrans.o
 .bss.old_m_h   0x000d6a9c        0x4 /tmp/ccWJ2D8E.ltrans6.ltrans.o
 .bss.old_m_w   0x000d6aa0        0x4 /tmp/ccWJ2D8E.ltrans6.ltrans.o
 .bss.old_m_y   0x000d6aa4        0x4 /tmp/ccWJ2D8E.ltrans6.ltrans.o
 .bss.old_m_x   0x000d6aa8        0x4 /tmp/ccWJ2D8E.ltrans6.ltrans.o
 .bss.bigstate.5689
                0x000d6aac        0x4 /tmp/ccWJ2D8E.ltrans6.ltrans.o
 .bss.eventhead
                0x000d6ab0        0x4 /tmp/ccWJ2D8E.ltrans6.ltrans.o
                0x000d6ab0                _eventhead
 .bss.eventtail
                0x000d6ab4        0x4 /tmp/ccWJ2D8E.ltrans6.ltrans.o
                0x000d6ab4                _eventtail
 .bss.events    0x000d6ab8      0x400 /tmp/ccWJ2D8E.ltrans6.ltrans.o
                0x000d6ab8                _events
 .bss.gametic   0x000d6eb8        0x4 /tmp/ccWJ2D8E.ltrans7.ltrans.o
                0x000d6eb8                _gametic
 .bss.lastlosresults
                0x000d6ebc      0x800 /tmp/ccWJ2D8E.ltrans7.ltrans.o
                0x000d6ebc                _lastlosresults
 .bss.numswitches
                0x000d76bc        0x4 /tmp/ccWJ2D8E.ltrans7.ltrans.o
                0x000d76bc                _numswitches
 .bss.switchlist
                0x000d76c0      0x190 /tmp/ccWJ2D8E.ltrans7.ltrans.o
                0x000d76c0                _switchlist
 .bss.repeatfillbackscreen
                0x000d7850        0x1 /tmp/ccWJ2D8E.ltrans8.ltrans.o
                0x000d7850                _repeatfillbackscreen
 *fill*         0x000d7851        0x1 
 .bss.schedule_configure.lto_priv.269
                0x000d7852        0x2 /tmp/ccWJ2D8E.ltrans8.ltrans.o
                0x000d7852                _schedule_configure.lto_priv.269
 .bss.os_montype.lto_priv.213
                0x000d7854        0x2 /tmp/ccWJ2D8E.ltrans8.ltrans.o
                0x000d7854                _os_montype.lto_priv.213
 .bss.hwdetailshifty
                0x000d7856        0x2 /tmp/ccWJ2D8E.ltrans8.ltrans.o
                0x000d7856                _hwdetailshifty
 .bss.hwdetailshiftx
                0x000d7858        0x2 /tmp/ccWJ2D8E.ltrans8.ltrans.o
                0x000d7858                _hwdetailshiftx
 .bss.active_detailflags
                0x000d785a        0x4 /tmp/ccWJ2D8E.ltrans8.ltrans.o
 .bss.setdetail
                0x000d785e        0x4 /tmp/ccWJ2D8E.ltrans8.ltrans.o
                0x000d785e                _setdetail
 .bss.setydetail
                0x000d7862        0x4 /tmp/ccWJ2D8E.ltrans8.ltrans.o
                0x000d7862                _setydetail
 .bss.inhelpscreens
                0x000d7866        0x1 /tmp/ccWJ2D8E.ltrans8.ltrans.o
                0x000d7866                _inhelpscreens
 .bss.menuactive
                0x000d7867        0x1 /tmp/ccWJ2D8E.ltrans8.ltrans.o
                0x000d7867                _menuactive
 .bss.pspriteiscale
                0x000d7868        0x4 /tmp/ccWJ2D8E.ltrans8.ltrans.o
                0x000d7868                _pspriteiscale
 .bss.pspritescale
                0x000d786c        0x4 /tmp/ccWJ2D8E.ltrans8.ltrans.o
                0x000d786c                _pspritescale
 .bss.centerxfrac
                0x000d7870        0x4 /tmp/ccWJ2D8E.ltrans8.ltrans.o
                0x000d7870                _centerxfrac
 .bss.centery   0x000d7874        0x4 /tmp/ccWJ2D8E.ltrans8.ltrans.o
                0x000d7874                _centery
 .bss.detailshift
                0x000d7878        0x4 /tmp/ccWJ2D8E.ltrans8.ltrans.o
                0x000d7878                _detailshift
 .bss.scaledviewwidth
                0x000d787c        0x4 /tmp/ccWJ2D8E.ltrans8.ltrans.o
                0x000d787c                _scaledviewwidth
 .bss.setsizeneeded
                0x000d7880        0x1 /tmp/ccWJ2D8E.ltrans8.ltrans.o
                0x000d7880                _setsizeneeded
 *fill*         0x000d7881        0x1 
 .bss.spritename
                0x000d7882        0x4 /tmp/ccWJ2D8E.ltrans8.ltrans.o
                0x000d7882                _spritename
 *fill*         0x000d7886        0x2 
 .bss.sprtemp   0x000d7888      0x32c /tmp/ccWJ2D8E.ltrans8.ltrans.o
                0x000d7888                _sprtemp
 .bss.maxframe  0x000d7bb4        0x4 /tmp/ccWJ2D8E.ltrans8.ltrans.o
                0x000d7bb4                _maxframe
 .bss.reloadname
                0x000d7bb8        0x4 /tmp/ccWJ2D8E.ltrans8.ltrans.o
                0x000d7bb8                _reloadname
 .bss.lumpinfo  0x000d7bbc        0x4 /tmp/ccWJ2D8E.ltrans8.ltrans.o
                0x000d7bbc                _lumpinfo
 .bss.lumpcache
                0x000d7bc0        0x4 /tmp/ccWJ2D8E.ltrans8.ltrans.o
                0x000d7bc0                _lumpcache
 .bss.numlumps  0x000d7bc4        0x4 /tmp/ccWJ2D8E.ltrans8.ltrans.o
                0x000d7bc4                _numlumps
 .bss.snl_pointeron.lto_priv.176
                0x000d7bc8        0x1 /tmp/ccWJ2D8E.ltrans8.ltrans.o
                0x000d7bc8                _snl_pointeron.lto_priv.176
 *fill*         0x000d7bc9        0x1 
 .bss.dm_totals.lto_priv.217
                0x000d7bca       0x10 /tmp/ccWJ2D8E.ltrans8.ltrans.o
                0x000d7bca                _dm_totals.lto_priv.217
 .bss.dm_frags.lto_priv.216
                0x000d7bda       0x40 /tmp/ccWJ2D8E.ltrans8.ltrans.o
                0x000d7bda                _dm_frags.lto_priv.216
 .bss.dm_state.lto_priv.214
                0x000d7c1a        0x4 /tmp/ccWJ2D8E.ltrans8.ltrans.o
                0x000d7c1a                _dm_state.lto_priv.214
 .bss.cnt_frags.lto_priv.219
                0x000d7c1e       0x10 /tmp/ccWJ2D8E.ltrans8.ltrans.o
                0x000d7c1e                _cnt_frags.lto_priv.219
 .bss.dofrags.lto_priv.223
                0x000d7c2e        0x4 /tmp/ccWJ2D8E.ltrans8.ltrans.o
                0x000d7c2e                _dofrags.lto_priv.223
 .bss.playeringame
                0x000d7c32        0x4 /tmp/ccWJ2D8E.ltrans8.ltrans.o
                0x000d7c32                _playeringame
 .bss.ng_state.lto_priv.218
                0x000d7c36        0x4 /tmp/ccWJ2D8E.ltrans8.ltrans.o
                0x000d7c36                _ng_state.lto_priv.218
 .bss.cnt_pause.lto_priv.215
                0x000d7c3a        0x4 /tmp/ccWJ2D8E.ltrans8.ltrans.o
                0x000d7c3a                _cnt_pause.lto_priv.215
 .bss.cnt.lto_priv.174
                0x000d7c3e        0x4 /tmp/ccWJ2D8E.ltrans8.ltrans.o
                0x000d7c3e                _cnt.lto_priv.174
 .bss.cnt_par.lto_priv.225
                0x000d7c42        0x4 /tmp/ccWJ2D8E.ltrans8.ltrans.o
                0x000d7c42                _cnt_par.lto_priv.225
 .bss.cnt_time.lto_priv.226
                0x000d7c46        0x4 /tmp/ccWJ2D8E.ltrans8.ltrans.o
                0x000d7c46                _cnt_time.lto_priv.226
 .bss.cnt_secret.lto_priv.220
                0x000d7c4a       0x10 /tmp/ccWJ2D8E.ltrans8.ltrans.o
                0x000d7c4a                _cnt_secret.lto_priv.220
 .bss.cnt_items.lto_priv.221
                0x000d7c5a       0x10 /tmp/ccWJ2D8E.ltrans8.ltrans.o
                0x000d7c5a                _cnt_items.lto_priv.221
 .bss.cnt_kills.lto_priv.222
                0x000d7c6a       0x10 /tmp/ccWJ2D8E.ltrans8.ltrans.o
                0x000d7c6a                _cnt_kills.lto_priv.222
 .bss.me.lto_priv.197
                0x000d7c7a        0x4 /tmp/ccWJ2D8E.ltrans8.ltrans.o
                0x000d7c7a                _me.lto_priv.197
 .bss.plrs.lto_priv.198
                0x000d7c7e        0x4 /tmp/ccWJ2D8E.ltrans8.ltrans.o
                0x000d7c7e                _plrs.lto_priv.198
 .bss.sp_state.lto_priv.224
                0x000d7c82        0x4 /tmp/ccWJ2D8E.ltrans8.ltrans.o
                0x000d7c82                _sp_state.lto_priv.224
 .bss.acceleratestage.lto_priv.175
                0x000d7c86        0x4 /tmp/ccWJ2D8E.ltrans8.ltrans.o
                0x000d7c86                _acceleratestage.lto_priv.175
 *fill*         0x000d7c8a        0x2 
 .bss.ricochet  0x000d7c8c       0x18 /tmp/ccWJ2D8E.ltrans9.ltrans.o
 .bss.bombdamage
                0x000d7ca4        0x4 /tmp/ccWJ2D8E.ltrans9.ltrans.o
 .bss.bombsource
                0x000d7ca8        0x4 /tmp/ccWJ2D8E.ltrans9.ltrans.o
 .bss.bombspot  0x000d7cac        0x4 /tmp/ccWJ2D8E.ltrans9.ltrans.o
 .bss.crushchange
                0x000d7cb0        0x1 /tmp/ccWJ2D8E.ltrans9.ltrans.o
 .bss.nofit     0x000d7cb1        0x1 /tmp/ccWJ2D8E.ltrans9.ltrans.o
 .bss.numbraintargets
                0x000d7cb2        0x4 /tmp/ccWJ2D8E.ltrans11.ltrans.o
 .bss.braintargets
                0x000d7cb6       0x80 /tmp/ccWJ2D8E.ltrans11.ltrans.o
 .bss.braintargeton
                0x000d7d36        0x4 /tmp/ccWJ2D8E.ltrans11.ltrans.o
 .bss.easy.6698
                0x000d7d3a        0x4 /tmp/ccWJ2D8E.ltrans11.ltrans.o
 .bss.usergame  0x000d7d3e        0x1 /tmp/ccWJ2D8E.ltrans12.ltrans.o
                0x000d7d3e                _usergame
 *fill*         0x000d7d3f        0x1 
 .bss.itemrespawnque
                0x000d7d40      0x500 /tmp/ccWJ2D8E.ltrans14.ltrans.o
                0x000d7d40                _itemrespawnque
 .bss.itemrespawntime
                0x000d8240      0x200 /tmp/ccWJ2D8E.ltrans14.ltrans.o
                0x000d8240                _itemrespawntime
 .bss.iquetail  0x000d8440        0x4 /tmp/ccWJ2D8E.ltrans14.ltrans.o
                0x000d8440                _iquetail
 .bss.iquehead  0x000d8444        0x4 /tmp/ccWJ2D8E.ltrans14.ltrans.o
                0x000d8444                _iquehead
 .bss.buttonlist
                0x000d8448      0x140 /tmp/ccWJ2D8E.ltrans14.ltrans.o
                0x000d8448                _buttonlist
 .bss.numlinespecials
                0x000d8588        0x2 /tmp/ccWJ2D8E.ltrans14.ltrans.o
                0x000d8588                _numlinespecials
 .bss.linespeciallist
                0x000d858a      0x100 /tmp/ccWJ2D8E.ltrans14.ltrans.o
                0x000d858a                _linespeciallist
 .bss.anims     0x000d868a      0x280 /tmp/ccWJ2D8E.ltrans14.ltrans.o
                0x000d868a                _anims
 .bss.lastanim  0x000d890a        0x4 /tmp/ccWJ2D8E.ltrans14.ltrans.o
                0x000d890a                _lastanim
 .bss.DOOM2BM_FlatTranslation
                0x000d890e        0x4 /tmp/ccWJ2D8E.ltrans14.ltrans.o
                0x000d890e                _DOOM2BM_FlatTranslation
 .bss.flattranslation
                0x000d8912        0x4 /tmp/ccWJ2D8E.ltrans14.ltrans.o
                0x000d8912                _flattranslation
 .bss.t.6612    0x000d8916        0x4 /tmp/ccWJ2D8E.ltrans14.ltrans.o
 .bss.levelTimeCount
                0x000d891a        0x4 /tmp/ccWJ2D8E.ltrans14.ltrans.o
                0x000d891a                _levelTimeCount
 .bss.levelTimer
                0x000d891e        0x1 /tmp/ccWJ2D8E.ltrans14.ltrans.o
                0x000d891e                _levelTimer
 .bss.respawnmonsters
                0x000d891f        0x1 /tmp/ccWJ2D8E.ltrans14.ltrans.o
                0x000d891f                _respawnmonsters
 .bss.secretexit
                0x000d8920        0x1 /tmp/ccWJ2D8E.ltrans14.ltrans.o
                0x000d8920                _secretexit
 *fill*         0x000d8921        0x1 
 .bss.usething  0x000d8922        0x4 /tmp/ccWJ2D8E.ltrans14.ltrans.o
                0x000d8922                _usething
 .bss.demoplayback
                0x000d8926        0x1 /tmp/ccWJ2D8E.ltrans14.ltrans.o
                0x000d8926                _demoplayback
 .bss.paused    0x000d8927        0x1 /tmp/ccWJ2D8E.ltrans14.ltrans.o
                0x000d8927                _paused
 .bss.leveltime
                0x000d8928        0x4 /tmp/ccWJ2D8E.ltrans14.ltrans.o
                0x000d8928                _leveltime
 .bss.onground  0x000d892c        0x1 /tmp/ccWJ2D8E.ltrans14.ltrans.o
 *fill*         0x000d892d        0x1 
 .bss.DOOM2BM_TextureTranslation
                0x000d892e        0x4 /tmp/ccWJ2D8E.ltrans14.ltrans.o
 .bss.texturetranslation
                0x000d8932        0x4 /tmp/ccWJ2D8E.ltrans14.ltrans.o
 .bss.textureheight
                0x000d8936        0x4 /tmp/ccWJ2D8E.ltrans14.ltrans.o
                0x000d8936                _textureheight
 .bss.texturewidthmask
                0x000d893a        0x4 /tmp/ccWJ2D8E.ltrans14.ltrans.o
 .bss.texturecompositesize
                0x000d893e        0x4 /tmp/ccWJ2D8E.ltrans14.ltrans.o
 .bss.texturecomposite
                0x000d8942        0x4 /tmp/ccWJ2D8E.ltrans14.ltrans.o
 .bss.texturecolumnofs
                0x000d8946        0x4 /tmp/ccWJ2D8E.ltrans14.ltrans.o
 .bss.texturecolumnlump
                0x000d894a        0x4 /tmp/ccWJ2D8E.ltrans14.ltrans.o
 .bss.numtextures
                0x000d894e        0x4 /tmp/ccWJ2D8E.ltrans14.ltrans.o
                0x000d894e                _numtextures
 .bss.textures  0x000d8952        0x4 /tmp/ccWJ2D8E.ltrans14.ltrans.o
                0x000d8952                _textures
 .bss.wiminus.lto_priv.95
                0x000d8956        0x4 /tmp/ccWJ2D8E.ltrans15.ltrans.o
                0x000d8956                _wiminus.lto_priv.95
 .bss.num.lto_priv.94
                0x000d895a       0x28 /tmp/ccWJ2D8E.ltrans15.ltrans.o
                0x000d895a                _num.lto_priv.94
 .bss.fl.5768.lto_priv.163
                0x000d8982       0x10 /tmp/ccWJ2D8E.ltrans15.ltrans.o
                0x000d8982                _fl.5768.lto_priv.163
 .bss.f_w.lto_priv.160
                0x000d8992        0x4 /tmp/ccWJ2D8E.ltrans15.ltrans.o
                0x000d8992                _f_w.lto_priv.160
 .bss.f_y.lto_priv.168
                0x000d8996        0x4 /tmp/ccWJ2D8E.ltrans15.ltrans.o
                0x000d8996                _f_y.lto_priv.168
 .bss.f_h.lto_priv.159
                0x000d899a        0x4 /tmp/ccWJ2D8E.ltrans15.ltrans.o
                0x000d899a                _f_h.lto_priv.159
 .bss.f_x.lto_priv.167
                0x000d899e        0x4 /tmp/ccWJ2D8E.ltrans15.ltrans.o
                0x000d899e                _f_x.lto_priv.167
 .bss.m_x2.lto_priv.165
                0x000d89a2        0x4 /tmp/ccWJ2D8E.ltrans15.ltrans.o
                0x000d89a2                _m_x2.lto_priv.165
 .bss.m_x.lto_priv.161
                0x000d89a6        0x4 /tmp/ccWJ2D8E.ltrans15.ltrans.o
                0x000d89a6                _m_x.lto_priv.161
 .bss.m_y.lto_priv.162
                0x000d89aa        0x4 /tmp/ccWJ2D8E.ltrans15.ltrans.o
                0x000d89aa                _m_y.lto_priv.162
 .bss.m_y2.lto_priv.164
                0x000d89ae        0x4 /tmp/ccWJ2D8E.ltrans15.ltrans.o
                0x000d89ae                _m_y2.lto_priv.164
 .bss.bmm_volumes
                0x000d89b2        0x4 /tmp/ccWJ2D8E.ltrans15.ltrans.o
                0x000d89b2                _bmm_volumes
 .bss.bmm_volumetable
                0x000d89b6      0x200 /tmp/ccWJ2D8E.ltrans15.ltrans.o
                0x000d89b6                _bmm_volumetable
 .bss.istep_dn24_tab.lto_priv.271
                0x000d8bb6     0x4000 /tmp/ccWJ2D8E.ltrans15.ltrans.o
                0x000d8bb6                _istep_dn24_tab.lto_priv.271
 .bss.s_timestamp.lto_priv.272
                0x000dcbb6        0x4 /tmp/ccWJ2D8E.ltrans15.ltrans.o
                0x000dcbb6                _s_timestamp.lto_priv.272
 .bss.bmm_channel_controller_pbend
                0x000dcbba       0x20 /tmp/ccWJ2D8E.ltrans15.ltrans.o
                0x000dcbba                _bmm_channel_controller_pbend
 .bss.instrument_map
                0x000dcbda      0x100 /tmp/ccWJ2D8E.ltrans15.ltrans.o
                0x000dcbda                _instrument_map
 .bss.numsectors
                0x000dccda        0x4 /tmp/ccWJ2D8E.ltrans15.ltrans.o
                0x000dccda                _numsectors
 .bss.thinkercap
                0x000dccde        0xc /tmp/ccWJ2D8E.ltrans15.ltrans.o
                0x000dccde                _thinkercap
 .bss.prndindex
                0x000dccea        0x2 /tmp/ccWJ2D8E.ltrans15.ltrans.o
                0x000dccea                _prndindex
 .bss.numdirtysectors
                0x000dccec        0x2 /tmp/ccWJ2D8E.ltrans15.ltrans.o
                0x000dccec                _numdirtysectors
 .bss.sides     0x000dccee        0x4 /tmp/ccWJ2D8E.ltrans15.ltrans.o
                0x000dccee                _sides
 .bss.mobj_freelist
                0x000dccf2     0x1000 /tmp/ccWJ2D8E.ltrans15.ltrans.o
                0x000dccf2                _mobj_freelist
 .bss.mobj_freelist_size
                0x000ddcf2        0x2 /tmp/ccWJ2D8E.ltrans15.ltrans.o
                0x000ddcf2                _mobj_freelist_size
 .bss.activeplats
                0x000ddcf4       0x78 /tmp/ccWJ2D8E.ltrans15.ltrans.o
                0x000ddcf4                _activeplats
 .bss.blocklinks
                0x000ddd6c        0x4 /tmp/ccWJ2D8E.ltrans15.ltrans.o
                0x000ddd6c                _blocklinks
 .bss.blockmaplump
                0x000ddd70        0x4 /tmp/ccWJ2D8E.ltrans15.ltrans.o
                0x000ddd70                _blockmaplump
 .bss.blockmap  0x000ddd74        0x4 /tmp/ccWJ2D8E.ltrans15.ltrans.o
                0x000ddd74                _blockmap
 .bss.bmapheight
                0x000ddd78        0x4 /tmp/ccWJ2D8E.ltrans15.ltrans.o
                0x000ddd78                _bmapheight
 .bss.bmapwidth
                0x000ddd7c        0x4 /tmp/ccWJ2D8E.ltrans15.ltrans.o
                0x000ddd7c                _bmapwidth
 .bss.bmaporgy  0x000ddd80        0x4 /tmp/ccWJ2D8E.ltrans15.ltrans.o
                0x000ddd80                _bmaporgy
 .bss.bmaporgx  0x000ddd84        0x4 /tmp/ccWJ2D8E.ltrans15.ltrans.o
                0x000ddd84                _bmaporgx
 .bss.intercepts
                0x000ddd88      0x500 /tmp/ccWJ2D8E.ltrans15.ltrans.o
                0x000ddd88                _intercepts
 .bss.intercept_p
                0x000de288        0x4 /tmp/ccWJ2D8E.ltrans15.ltrans.o
                0x000de288                _intercept_p
 .bss.earlyout  0x000de28c        0x1 /tmp/ccWJ2D8E.ltrans15.ltrans.o
                0x000de28c                _earlyout
 .bss.fastparm  0x000de28d        0x1 /tmp/ccWJ2D8E.ltrans16.ltrans.o
                0x000de28d                _fastparm
 .bss.corpsehit
                0x000de28e        0x4 /tmp/ccWJ2D8E.ltrans16.ltrans.o
 .bss.viletryy  0x000de292        0x4 /tmp/ccWJ2D8E.ltrans16.ltrans.o
 .bss.viletryx  0x000de296        0x4 /tmp/ccWJ2D8E.ltrans16.ltrans.o
 .bss.chainrunning
                0x000de29a        0x2 /tmp/ccWJ2D8E.ltrans17.ltrans.o
 .bss.chgunorg  0x000de29c       0x18 /tmp/ccWJ2D8E.ltrans17.ltrans.o
 .bss.soundtarget
                0x000de2b4        0x4 /tmp/ccWJ2D8E.ltrans17.ltrans.o
                0x000de2b4                _soundtarget
 .bss.la_damage
                0x000de2b8        0x4 /tmp/ccWJ2D8E.ltrans17.ltrans.o
                0x000de2b8                _la_damage
 .bss.bulletslope
                0x000de2bc        0x4 /tmp/ccWJ2D8E.ltrans17.ltrans.o
 .bss.g_freelook
                0x000de2c0        0x4 /tmp/ccWJ2D8E.ltrans17.ltrans.o
                0x000de2c0                _g_freelook
 .bss.gameaction
                0x000de2c4        0x4 /tmp/ccWJ2D8E.ltrans18.ltrans.o
                0x000de2c4                _gameaction
 .bss.d_map     0x000de2c8        0x4 /tmp/ccWJ2D8E.ltrans18.ltrans.o
                0x000de2c8                _d_map
 .bss.d_episode
                0x000de2cc        0x4 /tmp/ccWJ2D8E.ltrans18.ltrans.o
                0x000de2cc                _d_episode
 .bss.d_skill   0x000de2d0        0x4 /tmp/ccWJ2D8E.ltrans18.ltrans.o
                0x000de2d0                _d_skill
 .bss.gameskill
                0x000de2d4        0x4 /tmp/ccWJ2D8E.ltrans18.ltrans.o
                0x000de2d4                _gameskill
 .bss.buf.6646  0x000de2d8       0x34 /tmp/ccWJ2D8E.ltrans18.ltrans.o
 .bss.plyr.lto_priv.134
                0x000de30c        0x4 /tmp/ccWJ2D8E.ltrans18.ltrans.o
                0x000de30c                _plyr.lto_priv.134
 .bss.netgame   0x000de310        0x1 /tmp/ccWJ2D8E.ltrans18.ltrans.o
                0x000de310                _netgame
 *fill*         0x000de311        0x1 
 .bss.viewwidth
                0x000de312        0x4 /tmp/ccWJ2D8E.ltrans18.ltrans.o
                0x000de312                _viewwidth
 .bss.viewheight
                0x000de316        0x4 /tmp/ccWJ2D8E.ltrans18.ltrans.o
                0x000de316                _viewheight
 .bss.viewwindowy
                0x000de31a        0x4 /tmp/ccWJ2D8E.ltrans18.ltrans.o
                0x000de31a                _viewwindowy
 .bss.viewwindowx
                0x000de31e        0x4 /tmp/ccWJ2D8E.ltrans18.ltrans.o
                0x000de31e                _viewwindowx
 .bss.automapactive
                0x000de322        0x1 /tmp/ccWJ2D8E.ltrans18.ltrans.o
                0x000de322                _automapactive
 .bss.mus_paused.lto_priv.173
                0x000de323        0x1 /tmp/ccWJ2D8E.ltrans18.ltrans.o
                0x000de323                _mus_paused.lto_priv.173
 .bss.mus_playing.lto_priv.172
                0x000de324        0x4 /tmp/ccWJ2D8E.ltrans18.ltrans.o
                0x000de324                _mus_playing.lto_priv.172
 .bss.g_song_on_refresh_looping
                0x000de328        0x2 /tmp/ccWJ2D8E.ltrans18.ltrans.o
                0x000de328                _g_song_on_refresh_looping
 .bss.s_serverlocks
                0x000de32a        0x1 /tmp/ccWJ2D8E.ltrans18.ltrans.o
                0x000de32a                _s_serverlocks
 *fill*         0x000de32b        0x1 
 .bss.viewy     0x000de32c        0x4 /tmp/ccWJ2D8E.ltrans18.ltrans.o
                0x000de32c                _viewy
 .bss.viewx     0x000de330        0x4 /tmp/ccWJ2D8E.ltrans18.ltrans.o
                0x000de330                _viewx
 .bss.gamemap   0x000de334        0x4 /tmp/ccWJ2D8E.ltrans18.ltrans.o
                0x000de334                _gamemap
 .bss.myargv    0x000de338        0x4 /tmp/ccWJ2D8E.ltrans18.ltrans.o
                0x000de338                _myargv
 .bss.myargc    0x000de33c        0x4 /tmp/ccWJ2D8E.ltrans18.ltrans.o
                0x000de33c                _myargc
 .bss.bmconsole_chars
                0x000de340      0x6c0 /tmp/ccWJ2D8E.ltrans18.ltrans.o
                0x000de340                _bmconsole_chars
 .bss.smallmem  0x000dea00        0x1 /tmp/ccWJ2D8E.ltrans18.ltrans.o
                0x000dea00                _smallmem
 .bss.g_viewportmode
                0x000dea01        0x1 /tmp/ccWJ2D8E.ltrans18.ltrans.o
                0x000dea01                _g_viewportmode
 .bss.diskcounter
                0x000dea02        0x2 /tmp/ccWJ2D8E.ltrans18.ltrans.o
                0x000dea02                _diskcounter
 .bss.disksema.5451.lto_priv.123
                0x000dea04        0x2 /tmp/ccWJ2D8E.ltrans18.ltrans.o
                0x000dea04                _disksema.5451.lto_priv.123
 .bss.aimslope  0x000dea06        0x4 /tmp/ccWJ2D8E.ltrans18.ltrans.o
                0x000dea06                _aimslope
 .bss.linetarget
                0x000dea0a        0x4 /tmp/ccWJ2D8E.ltrans18.ltrans.o
                0x000dea0a                _linetarget
 .bss.attackrange
                0x000dea0e        0x4 /tmp/ccWJ2D8E.ltrans18.ltrans.o
                0x000dea0e                _attackrange
 .bss.bottomslope
                0x000dea12        0x4 /tmp/ccWJ2D8E.ltrans18.ltrans.o
                0x000dea12                _bottomslope
 .bss.topslope  0x000dea16        0x4 /tmp/ccWJ2D8E.ltrans18.ltrans.o
                0x000dea16                _topslope
 .bss.shootz    0x000dea1a        0x4 /tmp/ccWJ2D8E.ltrans18.ltrans.o
                0x000dea1a                _shootz
 .bss.shootthing
                0x000dea1e        0x4 /tmp/ccWJ2D8E.ltrans18.ltrans.o
                0x000dea1e                _shootthing
 .bss.sucks.lto_priv.111
                0x000dea22        0x4 /tmp/ccWJ2D8E.ltrans18.ltrans.o
                0x000dea22                _sucks.lto_priv.111
 .bss.colon.lto_priv.110
                0x000dea26        0x4 /tmp/ccWJ2D8E.ltrans18.ltrans.o
                0x000dea26                _colon.lto_priv.110
 .bss.g_mobjid  0x000dea2a        0x2 /tmp/ccWJ2D8E.ltrans19.ltrans.o
                0x000dea2a                _g_mobjid
 .bss.lu_palette.lto_priv.234
                0x000dea2c        0x4 /tmp/ccWJ2D8E.ltrans19.ltrans.o
                0x000dea2c                _lu_palette.lto_priv.234
 .bss.oldweaponsowned.lto_priv.196
                0x000dea30        0x9 /tmp/ccWJ2D8E.ltrans19.ltrans.o
                0x000dea30                _oldweaponsowned.lto_priv.196
 .bss.st_oldchat.lto_priv.193
                0x000dea39        0x1 /tmp/ccWJ2D8E.ltrans19.ltrans.o
                0x000dea39                _st_oldchat.lto_priv.193
 .bss.st_clock.lto_priv.188
                0x000dea3a        0x4 /tmp/ccWJ2D8E.ltrans19.ltrans.o
                0x000dea3a                _st_clock.lto_priv.188
 .bss.shortnum.lto_priv.236
                0x000dea3e       0x28 /tmp/ccWJ2D8E.ltrans19.ltrans.o
                0x000dea3e                _shortnum.lto_priv.236
 .bss.keyboxes.lto_priv.190
                0x000dea66        0xc /tmp/ccWJ2D8E.ltrans19.ltrans.o
                0x000dea66                _keyboxes.lto_priv.190
 .bss.keys.lto_priv.238
                0x000dea72       0x18 /tmp/ccWJ2D8E.ltrans19.ltrans.o
                0x000dea72                _keys.lto_priv.238
 .bss.st_faceindex.lto_priv.195
                0x000dea8a        0x4 /tmp/ccWJ2D8E.ltrans19.ltrans.o
                0x000dea8a                _st_faceindex.lto_priv.195
 .bss.faces.lto_priv.241
                0x000dea8e       0xa8 /tmp/ccWJ2D8E.ltrans19.ltrans.o
                0x000dea8e                _faces.lto_priv.241
 .bss.st_fragscount.lto_priv.192
                0x000deb36        0x4 /tmp/ccWJ2D8E.ltrans19.ltrans.o
                0x000deb36                _st_fragscount.lto_priv.192
 .bss.arms.lto_priv.240
                0x000deb3a       0x30 /tmp/ccWJ2D8E.ltrans19.ltrans.o
                0x000deb3a                _arms.lto_priv.240
 .bss.st_notdeathmatch.lto_priv.191
                0x000deb6a        0x1 /tmp/ccWJ2D8E.ltrans19.ltrans.o
                0x000deb6a                _st_notdeathmatch.lto_priv.191
 *fill*         0x000deb6b        0x1 
 .bss.armsbg.lto_priv.239
                0x000deb6c        0x4 /tmp/ccWJ2D8E.ltrans19.ltrans.o
                0x000deb6c                _armsbg.lto_priv.239
 .bss.tallpercent.lto_priv.237
                0x000deb70        0x4 /tmp/ccWJ2D8E.ltrans19.ltrans.o
                0x000deb70                _tallpercent.lto_priv.237
 .bss.tallnum.lto_priv.235
                0x000deb74       0x28 /tmp/ccWJ2D8E.ltrans19.ltrans.o
                0x000deb74                _tallnum.lto_priv.235
 .bss.always_off
                0x000deb9c        0x1 /tmp/ccWJ2D8E.ltrans19.ltrans.o
 *fill*         0x000deb9d        0x1 
 .bss.w_inputbuffer.lto_priv.182
                0x000deb9e      0x1d0 /tmp/ccWJ2D8E.ltrans19.ltrans.o
                0x000deb9e                _w_inputbuffer.lto_priv.182
 .bss.w_chat.lto_priv.242
                0x000ded6e       0x74 /tmp/ccWJ2D8E.ltrans19.ltrans.o
                0x000ded6e                _w_chat.lto_priv.242
 .bss.gameepisode
                0x000dede2        0x4 /tmp/ccWJ2D8E.ltrans19.ltrans.o
                0x000dede2                _gameepisode
 .bss.w_title.lto_priv.243
                0x000dede6       0x6a /tmp/ccWJ2D8E.ltrans19.ltrans.o
                0x000dede6                _w_title.lto_priv.243
 .bss.hu_font   0x000dee50       0xfc /tmp/ccWJ2D8E.ltrans19.ltrans.o
                0x000dee50                _hu_font
 .bss.w_message.lto_priv.181
                0x000def4c      0x1b6 /tmp/ccWJ2D8E.ltrans19.ltrans.o
                0x000def4c                _w_message.lto_priv.181
 .bss.chat_on   0x000df102        0x1 /tmp/ccWJ2D8E.ltrans19.ltrans.o
                0x000df102                _chat_on
 .bss.message_nottobefuckedwith.lto_priv.178
                0x000df103        0x1 /tmp/ccWJ2D8E.ltrans19.ltrans.o
                0x000df103                _message_nottobefuckedwith.lto_priv.178
 .bss.message_dontfuckwithme
                0x000df104        0x1 /tmp/ccWJ2D8E.ltrans19.ltrans.o
                0x000df104                _message_dontfuckwithme
 .bss.message_on.lto_priv.177
                0x000df105        0x1 /tmp/ccWJ2D8E.ltrans19.ltrans.o
                0x000df105                _message_on.lto_priv.177
 .bss.plr.lto_priv.180
                0x000df106        0x4 /tmp/ccWJ2D8E.ltrans19.ltrans.o
                0x000df106                _plr.lto_priv.180
 .bss.headsupactive
                0x000df10a        0x1 /tmp/ccWJ2D8E.ltrans19.ltrans.o
 *fill*         0x000df10b        0x1 
 .bss.spechit   0x000df10c       0x20 /tmp/ccWJ2D8E.ltrans19.ltrans.o
                0x000df10c                _spechit
 .bss.numspechit
                0x000df12c        0x4 /tmp/ccWJ2D8E.ltrans19.ltrans.o
                0x000df12c                _numspechit
 .bss.tmceilingz
                0x000df130        0x4 /tmp/ccWJ2D8E.ltrans19.ltrans.o
                0x000df130                _tmceilingz
 .bss.tmfloorz  0x000df134        0x4 /tmp/ccWJ2D8E.ltrans19.ltrans.o
                0x000df134                _tmfloorz
 .bss.tmdropoffz
                0x000df138        0x4 /tmp/ccWJ2D8E.ltrans19.ltrans.o
                0x000df138                _tmdropoffz
 .bss.ceilingline
                0x000df13c        0x4 /tmp/ccWJ2D8E.ltrans19.ltrans.o
                0x000df13c                _ceilingline
 .bss.tmbbox    0x000df140       0x10 /tmp/ccWJ2D8E.ltrans19.ltrans.o
                0x000df140                _tmbbox
 .bss.tmy       0x000df150        0x4 /tmp/ccWJ2D8E.ltrans19.ltrans.o
                0x000df150                _tmy
 .bss.tmx       0x000df154        0x4 /tmp/ccWJ2D8E.ltrans19.ltrans.o
                0x000df154                _tmx
 .bss.tmflags   0x000df158        0x4 /tmp/ccWJ2D8E.ltrans19.ltrans.o
                0x000df158                _tmflags
 .bss.tmthing   0x000df15c        0x4 /tmp/ccWJ2D8E.ltrans19.ltrans.o
                0x000df15c                _tmthing
 .bss.floatok   0x000df160        0x1 /tmp/ccWJ2D8E.ltrans19.ltrans.o
                0x000df160                _floatok
 *fill*         0x000df161        0x1 
 .bss.usegamma  0x000df162        0x4 /tmp/ccWJ2D8E.ltrans20.ltrans.o
                0x000df162                _usegamma
 .bss.joybspeed
                0x000df166        0x4 /tmp/ccWJ2D8E.ltrans20.ltrans.o
                0x000df166                _joybspeed
 .bss.joybuse   0x000df16a        0x4 /tmp/ccWJ2D8E.ltrans20.ltrans.o
                0x000df16a                _joybuse
 .bss.joybstrafe
                0x000df16e        0x4 /tmp/ccWJ2D8E.ltrans20.ltrans.o
                0x000df16e                _joybstrafe
 .bss.joybfire  0x000df172        0x4 /tmp/ccWJ2D8E.ltrans20.ltrans.o
                0x000df172                _joybfire
 .bss.usejoystick
                0x000df176        0x4 /tmp/ccWJ2D8E.ltrans20.ltrans.o
                0x000df176                _usejoystick
 .bss.mousebforward
                0x000df17a        0x4 /tmp/ccWJ2D8E.ltrans20.ltrans.o
                0x000df17a                _mousebforward
 .bss.mousebstrafe
                0x000df17e        0x4 /tmp/ccWJ2D8E.ltrans20.ltrans.o
                0x000df17e                _mousebstrafe
 .bss.mousebfire
                0x000df182        0x4 /tmp/ccWJ2D8E.ltrans20.ltrans.o
                0x000df182                _mousebfire
 .bss.usemouse  0x000df186        0x4 /tmp/ccWJ2D8E.ltrans20.ltrans.o
                0x000df186                _usemouse
 .bss.invertspeed
                0x000df18a        0x4 /tmp/ccWJ2D8E.ltrans20.ltrans.o
                0x000df18a                _invertspeed
 .bss.mousetype
                0x000df18e        0x4 /tmp/ccWJ2D8E.ltrans20.ltrans.o
                0x000df18e                _mousetype
 .bss.mousedev  0x000df192        0x4 /tmp/ccWJ2D8E.ltrans20.ltrans.o
                0x000df192                _mousedev
 .bss.key_speed
                0x000df196        0x4 /tmp/ccWJ2D8E.ltrans20.ltrans.o
                0x000df196                _key_speed
 .bss.key_strafe
                0x000df19a        0x4 /tmp/ccWJ2D8E.ltrans20.ltrans.o
                0x000df19a                _key_strafe
 .bss.key_use   0x000df19e        0x4 /tmp/ccWJ2D8E.ltrans20.ltrans.o
                0x000df19e                _key_use
 .bss.key_straferight
                0x000df1a2        0x4 /tmp/ccWJ2D8E.ltrans20.ltrans.o
                0x000df1a2                _key_straferight
 .bss.key_down  0x000df1a6        0x4 /tmp/ccWJ2D8E.ltrans20.ltrans.o
                0x000df1a6                _key_down
 .bss.key_strafeleft
                0x000df1aa        0x4 /tmp/ccWJ2D8E.ltrans20.ltrans.o
                0x000df1aa                _key_strafeleft
 .bss.key_up    0x000df1ae        0x4 /tmp/ccWJ2D8E.ltrans20.ltrans.o
                0x000df1ae                _key_up
 .bss.key_right
                0x000df1b2        0x4 /tmp/ccWJ2D8E.ltrans20.ltrans.o
                0x000df1b2                _key_right
 .bss.key_left  0x000df1b6        0x4 /tmp/ccWJ2D8E.ltrans20.ltrans.o
                0x000df1b6                _key_left
 .bss.key_fire  0x000df1ba        0x4 /tmp/ccWJ2D8E.ltrans20.ltrans.o
                0x000df1ba                _key_fire
 .bss.g_invertstereo
                0x000df1be        0x4 /tmp/ccWJ2D8E.ltrans20.ltrans.o
                0x000df1be                _g_invertstereo
 .bss.epi       0x000df1c2        0x4 /tmp/ccWJ2D8E.ltrans20.ltrans.o
 .bss.showMessages
                0x000df1c6        0x4 /tmp/ccWJ2D8E.ltrans20.ltrans.o
                0x000df1c6                _showMessages
 .bss.advancedemo
                0x000df1ca        0x1 /tmp/ccWJ2D8E.ltrans20.ltrans.o
                0x000df1ca                _advancedemo
 *fill*         0x000df1cb        0x1 
 .bss.demosequence
                0x000df1cc        0x4 /tmp/ccWJ2D8E.ltrans20.ltrans.o
                0x000df1cc                _demosequence
 .bss.numdefaults
                0x000df1d0        0x4 /tmp/ccWJ2D8E.ltrans20.ltrans.o
                0x000df1d0                _numdefaults
 .bss.defaultfile
                0x000df1d4        0x4 /tmp/ccWJ2D8E.ltrans20.ltrans.o
                0x000df1d4                _defaultfile
 .bss.doomcom   0x000df1d8        0x4 /tmp/ccWJ2D8E.ltrans20.ltrans.o
                0x000df1d8                _doomcom
 .bss.nodeingame
                0x000df1dc        0x8 /tmp/ccWJ2D8E.ltrans20.ltrans.o
                0x000df1dc                _nodeingame
 .bss.netbuffer
                0x000df1e4        0x4 /tmp/ccWJ2D8E.ltrans20.ltrans.o
                0x000df1e4                _netbuffer
 .bss.debugfile
                0x000df1e8        0x4 /tmp/ccWJ2D8E.ltrans20.ltrans.o
                0x000df1e8                _debugfile
 .bss.quitflag  0x000df1ec        0x1 /tmp/ccWJ2D8E.ltrans20.ltrans.o
                0x000df1ec                _quitflag
 .bss.messageNeedsInput
                0x000df1ed        0x1 /tmp/ccWJ2D8E.ltrans20.ltrans.o
                0x000df1ed                _messageNeedsInput
 .bss.messageRoutine
                0x000df1ee        0x4 /tmp/ccWJ2D8E.ltrans20.ltrans.o
                0x000df1ee                _messageRoutine
 .bss.messageLastMenuActive
                0x000df1f2        0x4 /tmp/ccWJ2D8E.ltrans20.ltrans.o
                0x000df1f2                _messageLastMenuActive
 .bss.endstring
                0x000df1f6       0xa0 /tmp/ccWJ2D8E.ltrans20.ltrans.o
 .bss.language  0x000df296        0x4 /tmp/ccWJ2D8E.ltrans20.ltrans.o
                0x000df296                _language
 .bss.mouseSensitivity
                0x000df29a        0x4 /tmp/ccWJ2D8E.ltrans20.ltrans.o
                0x000df29a                _mouseSensitivity
 .bss.xdetailLevel
                0x000df29e        0x4 /tmp/ccWJ2D8E.ltrans20.ltrans.o
                0x000df29e                _xdetailLevel
 .bss.ydetailLevel
                0x000df2a2        0x4 /tmp/ccWJ2D8E.ltrans20.ltrans.o
                0x000df2a2                _ydetailLevel
 .bss.screenblocks
                0x000df2a6        0x4 /tmp/ccWJ2D8E.ltrans20.ltrans.o
                0x000df2a6                _screenblocks
 .bss.screenSize
                0x000df2aa        0x4 /tmp/ccWJ2D8E.ltrans20.ltrans.o
                0x000df2aa                _screenSize
 .bss.itemOn    0x000df2ae        0x2 /tmp/ccWJ2D8E.ltrans20.ltrans.o
                0x000df2ae                _itemOn
 .bss.whichSkull
                0x000df2b0        0x2 /tmp/ccWJ2D8E.ltrans20.ltrans.o
                0x000df2b0                _whichSkull
 .bss.currentMenu
                0x000df2b2        0x4 /tmp/ccWJ2D8E.ltrans20.ltrans.o
                0x000df2b2                _currentMenu
 .bss.menuoffsetx
                0x000df2b6        0x2 /tmp/ccWJ2D8E.ltrans20.ltrans.o
                0x000df2b6                _menuoffsetx
 .bss.menuoffsety
                0x000df2b8        0x2 /tmp/ccWJ2D8E.ltrans20.ltrans.o
                0x000df2b8                _menuoffsety
 .bss.x.7002    0x000df2ba        0x2 /tmp/ccWJ2D8E.ltrans20.ltrans.o
 .bss.y.7003    0x000df2bc        0x2 /tmp/ccWJ2D8E.ltrans20.ltrans.o
 .bss.messageString
                0x000df2be        0x4 /tmp/ccWJ2D8E.ltrans20.ltrans.o
                0x000df2be                _messageString
 .bss.messageToPrint
                0x000df2c2        0x4 /tmp/ccWJ2D8E.ltrans20.ltrans.o
                0x000df2c2                _messageToPrint
 .bss.cheat_xlate_table
                0x000df2c6      0x100 /tmp/ccWJ2D8E.ltrans20.ltrans.o
 .bss.min_y.lto_priv.259
                0x000df3c6        0x4 /tmp/ccWJ2D8E.ltrans20.ltrans.o
                0x000df3c6                _min_y.lto_priv.259
 .bss.max_y.lto_priv.261
                0x000df3ca        0x4 /tmp/ccWJ2D8E.ltrans20.ltrans.o
                0x000df3ca                _max_y.lto_priv.261
 .bss.min_x.lto_priv.260
                0x000df3ce        0x4 /tmp/ccWJ2D8E.ltrans20.ltrans.o
                0x000df3ce                _min_x.lto_priv.260
 .bss.max_x.lto_priv.262
                0x000df3d2        0x4 /tmp/ccWJ2D8E.ltrans20.ltrans.o
                0x000df3d2                _max_x.lto_priv.262
 .bss.f_oldloc.lto_priv.185
                0x000df3d6        0x8 /tmp/ccWJ2D8E.ltrans20.ltrans.o
                0x000df3d6                _f_oldloc.lto_priv.185
 .bss.m_paninc.lto_priv.184
                0x000df3de        0x8 /tmp/ccWJ2D8E.ltrans20.ltrans.o
                0x000df3de                _m_paninc.lto_priv.184
 .bss.scale_ftom.lto_priv.186
                0x000df3e6        0x4 /tmp/ccWJ2D8E.ltrans20.ltrans.o
                0x000df3e6                _scale_ftom.lto_priv.186
 .bss.min_scale_mtof.lto_priv.187
                0x000df3ea        0x4 /tmp/ccWJ2D8E.ltrans20.ltrans.o
                0x000df3ea                _min_scale_mtof.lto_priv.187
 .bss.viewactive
                0x000df3ee        0x1 /tmp/ccWJ2D8E.ltrans21.ltrans.o
                0x000df3ee                _viewactive
 .bss.nomonsters
                0x000df3ef        0x1 /tmp/ccWJ2D8E.ltrans21.ltrans.o
                0x000df3ef                _nomonsters
 .bss.respawnparm
                0x000df3f0        0x1 /tmp/ccWJ2D8E.ltrans21.ltrans.o
                0x000df3f0                _respawnparm
 .bss.netdemo   0x000df3f1        0x1 /tmp/ccWJ2D8E.ltrans21.ltrans.o
                0x000df3f1                _netdemo
 .bss.demoname  0x000df3f2       0x20 /tmp/ccWJ2D8E.ltrans21.ltrans.o
                0x000df3f2                _demoname
 .bss.demobuffer
                0x000df412        0x4 /tmp/ccWJ2D8E.ltrans21.ltrans.o
                0x000df412                _demobuffer
 .bss.demo_p    0x000df416        0x4 /tmp/ccWJ2D8E.ltrans21.ltrans.o
                0x000df416                _demo_p
 .bss.demorecording
                0x000df41a        0x1 /tmp/ccWJ2D8E.ltrans21.ltrans.o
                0x000df41a                _demorecording
 .bss.timingdemo
                0x000df41b        0x1 /tmp/ccWJ2D8E.ltrans21.ltrans.o
                0x000df41b                _timingdemo
 .bss.savename  0x000df41c      0x100 /tmp/ccWJ2D8E.ltrans21.ltrans.o
                0x000df41c                _savename
 .bss.saveCharIndex
                0x000df51c        0x4 /tmp/ccWJ2D8E.ltrans21.ltrans.o
                0x000df51c                _saveCharIndex
 .bss.saveOldString
                0x000df520       0x18 /tmp/ccWJ2D8E.ltrans21.ltrans.o
                0x000df520                _saveOldString
 .bss.saveSlot  0x000df538        0x4 /tmp/ccWJ2D8E.ltrans21.ltrans.o
                0x000df538                _saveSlot
 .bss.saveStringEnter
                0x000df53c        0x4 /tmp/ccWJ2D8E.ltrans21.ltrans.o
                0x000df53c                _saveStringEnter
 .bss.savegamestrings
                0x000df540       0xf0 /tmp/ccWJ2D8E.ltrans21.ltrans.o
                0x000df540                _savegamestrings
 .bss.gamestate
                0x000df630        0x4 /tmp/ccWJ2D8E.ltrans21.ltrans.o
                0x000df630                _gamestate
 .bss.bmm_event_head
                0x000df634        0x2 /tmp/ccWJ2D8E.ltrans22.ltrans.o
 .bss.bmm_event_tail
                0x000df636        0x2 /tmp/ccWJ2D8E.ltrans22.ltrans.o
 .bss.mux_buffers.lto_priv.278
                0x000df638        0x8 /tmp/ccWJ2D8E.ltrans22.ltrans.o
                0x000df638                _mux_buffers.lto_priv.278
 .bss.remove_channels
                0x000df640       0x98 /tmp/ccWJ2D8E.ltrans22.ltrans.o
 .bss.remove_channel_count
                0x000df6d8        0x2 /tmp/ccWJ2D8E.ltrans22.ltrans.o
 .bss.mux_buffer_index
                0x000df6da        0x2 /tmp/ccWJ2D8E.ltrans22.ltrans.o
                0x000df6da                _mux_buffer_index
 .bss.resample_cacheblock_ring
                0x000df6dc     0x4000 /tmp/ccWJ2D8E.ltrans22.ltrans.o
                0x000df6dc                _resample_cacheblock_ring
 .bss.rcr_head  0x000e36dc        0x2 /tmp/ccWJ2D8E.ltrans22.ltrans.o
 .bss.resample_cache_hashtable.lto_priv.276
                0x000e36de     0x8000 /tmp/ccWJ2D8E.ltrans22.ltrans.o
                0x000e36de                _resample_cache_hashtable.lto_priv.276
 .bss.vlut_translation
                0x000eb6de     0x8000 /tmp/ccWJ2D8E.ltrans22.ltrans.o
                0x000eb6de                _vlut_translation
 .bss.volume_luts
                0x000f36de        0x4 /tmp/ccWJ2D8E.ltrans22.ltrans.o
                0x000f36de                _volume_luts
 .bss.back_active.lto_priv.280
                0x000f36e2       0x78 /tmp/ccWJ2D8E.ltrans22.ltrans.o
                0x000f36e2                _back_active.lto_priv.280
 .bss.bmm_channel_controller_volume
                0x000f375a       0x10 /tmp/ccWJ2D8E.ltrans22.ltrans.o
                0x000f375a                _bmm_channel_controller_volume
 .bss.bmmstate_duration
                0x000f376a        0x2 /tmp/ccWJ2D8E.ltrans22.ltrans.o
 .bss.bmm_pending_samples
                0x000f376c        0x4 /tmp/ccWJ2D8E.ltrans22.ltrans.o
 .bss.real_physical_channels
                0x000f3770        0x2 /tmp/ccWJ2D8E.ltrans22.ltrans.o
 .bss.active_physical
                0x000f3772       0x18 /tmp/ccWJ2D8E.ltrans22.ltrans.o
 .bss.dummy_source_base.lto_priv.277
                0x000f378a        0x4 /tmp/ccWJ2D8E.ltrans22.ltrans.o
                0x000f378a                _dummy_source_base.lto_priv.277
 .bss.front_active.lto_priv.279
                0x000f378e       0x78 /tmp/ccWJ2D8E.ltrans22.ltrans.o
                0x000f378e                _front_active.lto_priv.279
 .bss.channel_freepool.lto_priv.281
                0x000f3806       0x98 /tmp/ccWJ2D8E.ltrans22.ltrans.o
                0x000f3806                _channel_freepool.lto_priv.281
 .bss.channel_freepool_count.lto_priv.282
                0x000f389e        0x2 /tmp/ccWJ2D8E.ltrans22.ltrans.o
                0x000f389e                _channel_freepool_count.lto_priv.282
 .bss.s_presample_head
                0x000f38a0        0x4 /tmp/ccWJ2D8E.ltrans22.ltrans.o
 .bss.s_resamples_nc.lto_priv.283
                0x000f38a4        0x4 /tmp/ccWJ2D8E.ltrans22.ltrans.o
                0x000f38a4                _s_resamples_nc.lto_priv.283
 .bss.s_pmixcmd_head
                0x000f38a8        0x4 /tmp/ccWJ2D8E.ltrans22.ltrans.o
 .bss.s_mixcmd_nc.lto_priv.284
                0x000f38ac        0x4 /tmp/ccWJ2D8E.ltrans22.ltrans.o
                0x000f38ac                _s_mixcmd_nc.lto_priv.284
 .bss.bp.lto_priv.212
                0x000f38b0       0x10 /tmp/ccWJ2D8E.ltrans23.ltrans.o
                0x000f38b0                _bp.lto_priv.212
 .bss.p.lto_priv.211
                0x000f38c0       0x10 /tmp/ccWJ2D8E.ltrans23.ltrans.o
                0x000f38c0                _p.lto_priv.211
 .bss.total.lto_priv.210
                0x000f38d0        0x4 /tmp/ccWJ2D8E.ltrans23.ltrans.o
                0x000f38d0                _total.lto_priv.210
 .bss.killers.lto_priv.208
                0x000f38d4        0x4 /tmp/ccWJ2D8E.ltrans23.ltrans.o
                0x000f38d4                _killers.lto_priv.208
 .bss.victims.lto_priv.209
                0x000f38d8        0x4 /tmp/ccWJ2D8E.ltrans23.ltrans.o
                0x000f38d8                _victims.lto_priv.209
 .bss.par.lto_priv.207
                0x000f38dc        0x4 /tmp/ccWJ2D8E.ltrans23.ltrans.o
                0x000f38dc                _par.lto_priv.207
 .bss.time.lto_priv.206
                0x000f38e0        0x4 /tmp/ccWJ2D8E.ltrans23.ltrans.o
                0x000f38e0                _time.lto_priv.206
 .bss.frags.lto_priv.205
                0x000f38e4        0x4 /tmp/ccWJ2D8E.ltrans23.ltrans.o
                0x000f38e4                _frags.lto_priv.205
 .bss.items.lto_priv.204
                0x000f38e8        0x4 /tmp/ccWJ2D8E.ltrans23.ltrans.o
                0x000f38e8                _items.lto_priv.204
 .bss.sp_secret.lto_priv.203
                0x000f38ec        0x4 /tmp/ccWJ2D8E.ltrans23.ltrans.o
                0x000f38ec                _sp_secret.lto_priv.203
 .bss.secret.lto_priv.202
                0x000f38f0        0x4 /tmp/ccWJ2D8E.ltrans23.ltrans.o
                0x000f38f0                _secret.lto_priv.202
 .bss.kills.lto_priv.201
                0x000f38f4        0x4 /tmp/ccWJ2D8E.ltrans23.ltrans.o
                0x000f38f4                _kills.lto_priv.201
 .bss.entering.lto_priv.118
                0x000f38f8        0x4 /tmp/ccWJ2D8E.ltrans23.ltrans.o
                0x000f38f8                _entering.lto_priv.118
 .bss.finished.lto_priv.122
                0x000f38fc        0x4 /tmp/ccWJ2D8E.ltrans23.ltrans.o
                0x000f38fc                _finished.lto_priv.122
 .bss.splat.lto_priv.116
                0x000f3900        0x4 /tmp/ccWJ2D8E.ltrans23.ltrans.o
                0x000f3900                _splat.lto_priv.116
 .bss.yah.lto_priv.117
                0x000f3904        0x8 /tmp/ccWJ2D8E.ltrans23.ltrans.o
                0x000f3904                _yah.lto_priv.117
 .bss.NUMCMAPS.lto_priv.199
                0x000f390c        0x4 /tmp/ccWJ2D8E.ltrans23.ltrans.o
                0x000f390c                _NUMCMAPS.lto_priv.199
 .bss.lnames.lto_priv.119
                0x000f3910        0x4 /tmp/ccWJ2D8E.ltrans23.ltrans.o
                0x000f3910                _lnames.lto_priv.119
 .bss.bg.lto_priv.115
                0x000f3914        0x4 /tmp/ccWJ2D8E.ltrans23.ltrans.o
                0x000f3914                _bg.lto_priv.115
 .bss.state.lto_priv.114
                0x000f3918        0x4 /tmp/ccWJ2D8E.ltrans23.ltrans.o
                0x000f3918                _state.lto_priv.114
 .bss.bcnt.lto_priv.113
                0x000f391c        0x4 /tmp/ccWJ2D8E.ltrans23.ltrans.o
                0x000f391c                _bcnt.lto_priv.113
 .bss.wbs.lto_priv.112
                0x000f3920        0x4 /tmp/ccWJ2D8E.ltrans23.ltrans.o
                0x000f3920                _wbs.lto_priv.112
 .bss.percent.lto_priv.200
                0x000f3924        0x4 /tmp/ccWJ2D8E.ltrans23.ltrans.o
                0x000f3924                _percent.lto_priv.200
 .bss.sttminus  0x000f3928        0x4 /tmp/ccWJ2D8E.ltrans23.ltrans.o
                0x000f3928                _sttminus
 .bss.st_firsttime.lto_priv.148
                0x000f392c        0x1 /tmp/ccWJ2D8E.ltrans23.ltrans.o
                0x000f392c                _st_firsttime.lto_priv.148
 *fill*         0x000f392d        0x1 
 .bss.w_frags.lto_priv.141
                0x000f392e       0x18 /tmp/ccWJ2D8E.ltrans23.ltrans.o
                0x000f392e                _w_frags.lto_priv.141
 .bss.w_keyboxes.lto_priv.145
                0x000f3946       0x42 /tmp/ccWJ2D8E.ltrans23.ltrans.o
                0x000f3946                _w_keyboxes.lto_priv.145
 .bss.w_faces.lto_priv.143
                0x000f3988       0x16 /tmp/ccWJ2D8E.ltrans23.ltrans.o
                0x000f3988                _w_faces.lto_priv.143
 .bss.w_arms.lto_priv.139
                0x000f399e       0x84 /tmp/ccWJ2D8E.ltrans23.ltrans.o
                0x000f399e                _w_arms.lto_priv.139
 .bss.w_armsbg.lto_priv.138
                0x000f3a22       0x16 /tmp/ccWJ2D8E.ltrans23.ltrans.o
                0x000f3a22                _w_armsbg.lto_priv.138
 .bss.w_armor.lto_priv.144
                0x000f3a38       0x1c /tmp/ccWJ2D8E.ltrans23.ltrans.o
                0x000f3a38                _w_armor.lto_priv.144
 .bss.w_health.lto_priv.137
                0x000f3a54       0x1c /tmp/ccWJ2D8E.ltrans23.ltrans.o
                0x000f3a54                _w_health.lto_priv.137
 .bss.w_maxammo.lto_priv.147
                0x000f3a70       0x60 /tmp/ccWJ2D8E.ltrans23.ltrans.o
                0x000f3a70                _w_maxammo.lto_priv.147
 .bss.w_ammo.lto_priv.146
                0x000f3ad0       0x60 /tmp/ccWJ2D8E.ltrans23.ltrans.o
                0x000f3ad0                _w_ammo.lto_priv.146
 .bss.w_ready.lto_priv.135
                0x000f3b30       0x18 /tmp/ccWJ2D8E.ltrans23.ltrans.o
                0x000f3b30                _w_ready.lto_priv.135
 .bss.st_fragson.lto_priv.142
                0x000f3b48        0x1 /tmp/ccWJ2D8E.ltrans23.ltrans.o
                0x000f3b48                _st_fragson.lto_priv.142
 .bss.st_armson.lto_priv.140
                0x000f3b49        0x1 /tmp/ccWJ2D8E.ltrans23.ltrans.o
                0x000f3b49                _st_armson.lto_priv.140
 .bss.deathmatch
                0x000f3b4a        0x1 /tmp/ccWJ2D8E.ltrans23.ltrans.o
                0x000f3b4a                _deathmatch
 .bss.st_statusbaron.lto_priv.136
                0x000f3b4b        0x1 /tmp/ccWJ2D8E.ltrans23.ltrans.o
                0x000f3b4b                _st_statusbaron.lto_priv.136
 .bss.PIS_cache
                0x000f3b4c     0x4000 /tmp/ccWJ2D8E.ltrans24.ltrans.o
                0x000f3b4c                _PIS_cache
 .bss.piscachewidth
                0x000f7b4c        0x2 /tmp/ccWJ2D8E.ltrans24.ltrans.o
                0x000f7b4c                _piscachewidth
 .bss.static_PIS_cache
                0x000f7b4e        0x4 /tmp/ccWJ2D8E.ltrans24.ltrans.o
                0x000f7b4e                _static_PIS_cache
 .bss.bestslideline
                0x000f7b52        0x4 /tmp/ccWJ2D8E.ltrans24.ltrans.o
                0x000f7b52                _bestslideline
 .bss.tmymove   0x000f7b56        0x4 /tmp/ccWJ2D8E.ltrans24.ltrans.o
 .bss.tmxmove   0x000f7b5a        0x4 /tmp/ccWJ2D8E.ltrans24.ltrans.o
 .bss.bestslidefrac
                0x000f7b5e        0x4 /tmp/ccWJ2D8E.ltrans24.ltrans.o
                0x000f7b5e                _bestslidefrac
 .bss.slidemo   0x000f7b62        0x4 /tmp/ccWJ2D8E.ltrans24.ltrans.o
                0x000f7b62                _slidemo
 .bss.skyflatnum
                0x000f7b66        0x4 /tmp/ccWJ2D8E.ltrans24.ltrans.o
                0x000f7b66                _skyflatnum
 .bss.bmmstream_loop
                0x000f7b6a        0x2 /tmp/ccWJ2D8E.ltrans25.ltrans.o
                0x000f7b6a                _bmmstream_loop
 .bss.bmm_lumpbase
                0x000f7b6c        0x4 /tmp/ccWJ2D8E.ltrans25.ltrans.o
 .bss.bmm_channel_octave_map
                0x000f7b70       0x10 /tmp/ccWJ2D8E.ltrans25.ltrans.o
                0x000f7b70                _bmm_channel_octave_map
 .bss.bmconsole_activerows
                0x000f7b80        0x2 /tmp/ccWJ2D8E.ltrans25.ltrans.o
                0x000f7b80                _bmconsole_activerows
 .bss.bmconsole_head_row
                0x000f7b82        0x2 /tmp/ccWJ2D8E.ltrans25.ltrans.o
                0x000f7b82                _bmconsole_head_row
 .bss.last_jpad_buttons.5733
                0x000f7b84        0x4 /tmp/ccWJ2D8E.ltrans25.ltrans.o
 .bss.kbhead    0x000f7b88        0x2 /tmp/ccWJ2D8E.ltrans25.ltrans.o
                0x000f7b88                _kbhead
 .bss.keysmax   0x000f7b8a        0x2 /tmp/ccWJ2D8E.ltrans25.ltrans.o
 .bss.keysdown  0x000f7b8c        0x2 /tmp/ccWJ2D8E.ltrans25.ltrans.o
 .bss.kbtail    0x000f7b8e        0x2 /tmp/ccWJ2D8E.ltrans25.ltrans.o
 .bss.tracking_ready
                0x000f7b90        0x1 /tmp/ccWJ2D8E.ltrans25.ltrans.o
 *fill*         0x000f7b91        0x1 
 .bss.last_jpad_joy.5752
                0x000f7b92        0x4 /tmp/ccWJ2D8E.ltrans25.ltrans.o
 .bss.mshead    0x000f7b96        0x2 /tmp/ccWJ2D8E.ltrans25.ltrans.o
                0x000f7b96                _mshead
 .bss.mstail    0x000f7b98        0x2 /tmp/ccWJ2D8E.ltrans25.ltrans.o
 .bss.sendsocket
                0x000f7b9a        0x4 /tmp/ccWJ2D8E.ltrans25.ltrans.o
                0x000f7b9a                _sendsocket
 .bss.sendaddress
                0x000f7b9e       0x80 /tmp/ccWJ2D8E.ltrans25.ltrans.o
                0x000f7b9e                _sendaddress
 .bss.insocket  0x000f7c1e        0x4 /tmp/ccWJ2D8E.ltrans25.ltrans.o
                0x000f7c1e                _insocket
 .bss.openrange
                0x000f7c22        0x4 /tmp/ccWJ2D8E.ltrans26.ltrans.o
                0x000f7c22                _openrange
 .bss.lowfloor  0x000f7c26        0x4 /tmp/ccWJ2D8E.ltrans26.ltrans.o
                0x000f7c26                _lowfloor
 .bss.openbottom
                0x000f7c2a        0x4 /tmp/ccWJ2D8E.ltrans26.ltrans.o
                0x000f7c2a                _openbottom
 .bss.opentop   0x000f7c2e        0x4 /tmp/ccWJ2D8E.ltrans26.ltrans.o
                0x000f7c2e                _opentop
 .bss.activeceilings
                0x000f7c32       0x78 /tmp/ccWJ2D8E.ltrans27.ltrans.o
                0x000f7c32                _activeceilings
 .bss.trace     0x000f7caa       0x10 /tmp/ccWJ2D8E.ltrans28.ltrans.o
                0x000f7caa                _trace
 .bss.linewidths
                0x000f7cba        0xa /tmp/ccWJ2D8E.ltrans28.ltrans.o
                0x000f7cba                _linewidths
 .bss.screens   0x000f7cc4       0x18 /tmp/ccWJ2D8E.ltrans28.ltrans.o
                0x000f7cc4                _screens
 .bss.s_flushchannels
                0x000f7cdc        0x1 /tmp/ccWJ2D8E.ltrans28.ltrans.o
                0x000f7cdc                _s_flushchannels
 *fill*         0x000f7cdd        0x1 
 .bss.bmmstream_pos
                0x000f7cde        0x4 /tmp/ccWJ2D8E.ltrans28.ltrans.o
                0x000f7cde                _bmmstream_pos
 .bss.bmmstream_start
                0x000f7ce2        0x4 /tmp/ccWJ2D8E.ltrans28.ltrans.o
                0x000f7ce2                _bmmstream_start
 .bss.bmmstream_eventcount
                0x000f7ce6        0x2 /tmp/ccWJ2D8E.ltrans28.ltrans.o
                0x000f7ce6                _bmmstream_eventcount
 .bss.bmmseq_size
                0x000f7ce8        0x2 /tmp/ccWJ2D8E.ltrans28.ltrans.o
                0x000f7ce8                _bmmseq_size
 .bss.midi_mode
                0x000f7cea        0x4 /tmp/ccWJ2D8E.ltrans28.ltrans.o
                0x000f7cea                _midi_mode
 .bss.isbadmood
                0x000f7cee        0x1 /tmp/ccWJ2D8E.ltrans28.ltrans.o
                0x000f7cee                _isbadmood
 *fill*         0x000f7cef        0x1 
 .bss.active_channels.lto_priv.97
                0x000f7cf0     0x2400 /tmp/ccWJ2D8E.ltrans28.ltrans.o
                0x000f7cf0                _active_channels.lto_priv.97
 .bss.s_handle_pool.lto_priv.101
                0x000fa0f0        0x2 /tmp/ccWJ2D8E.ltrans28.ltrans.o
                0x000fa0f0                _s_handle_pool.lto_priv.101
 .bss.event_queue.lto_priv.100
                0x000fa0f2      0x780 /tmp/ccWJ2D8E.ltrans28.ltrans.o
                0x000fa0f2                _event_queue.lto_priv.100
 .bss.event_head.lto_priv.99
                0x000fa872        0x2 /tmp/ccWJ2D8E.ltrans28.ltrans.o
                0x000fa872                _event_head.lto_priv.99
 .bss.event_tail.lto_priv.98
                0x000fa874        0x2 /tmp/ccWJ2D8E.ltrans28.ltrans.o
                0x000fa874                _event_tail.lto_priv.98
 .bss.numChannels
                0x000fa876        0x4 /tmp/ccWJ2D8E.ltrans28.ltrans.o
                0x000fa876                _numChannels
 .bss.channels.lto_priv.96
                0x000fa87a        0x4 /tmp/ccWJ2D8E.ltrans28.ltrans.o
                0x000fa87a                _channels.lto_priv.96
 .bss.rndindex  0x000fa87e        0x2 /tmp/ccWJ2D8E.ltrans28.ltrans.o
                0x000fa87e                _rndindex
 .bss.players   0x000fa880      0x468 /tmp/ccWJ2D8E.ltrans28.ltrans.o
                0x000fa880                _players
 .bss.consoleplayer
                0x000face8        0x4 /tmp/ccWJ2D8E.ltrans28.ltrans.o
                0x000face8                _consoleplayer
 .bss.bodyque   0x000facec       0x80 /tmp/ccWJ2D8E.ltrans29.ltrans.o
 .bss.bodyqueslot
                0x000fad6c        0x4 /tmp/ccWJ2D8E.ltrans29.ltrans.o
                0x000fad6c                _bodyqueslot
 .bss.playerstarts
                0x000fad70       0x28 /tmp/ccWJ2D8E.ltrans29.ltrans.o
                0x000fad70                _playerstarts
 .bss.deathmatchstarts
                0x000fad98       0x64 /tmp/ccWJ2D8E.ltrans29.ltrans.o
                0x000fad98                _deathmatchstarts
 .bss.deathmatch_p
                0x000fadfc        0x4 /tmp/ccWJ2D8E.ltrans29.ltrans.o
                0x000fadfc                _deathmatch_p
 .bss.emptycmd  0x000fae00        0xa /tmp/ccWJ2D8E.ltrans30.ltrans.o
 .bss.chatchars.lto_priv.266
                0x000fae0a       0x80 /tmp/ccWJ2D8E.ltrans30.ltrans.o
                0x000fae0a                _chatchars.lto_priv.266
 .bss.tail.lto_priv.265
                0x000fae8a        0x4 /tmp/ccWJ2D8E.ltrans30.ltrans.o
                0x000fae8a                _tail.lto_priv.265
 .bss.head.lto_priv.264
                0x000fae8e        0x4 /tmp/ccWJ2D8E.ltrans30.ltrans.o
                0x000fae8e                _head.lto_priv.264
 .bss.dclicks2  0x000fae92        0x4 /tmp/ccWJ2D8E.ltrans30.ltrans.o
 .bss.dclicktime2
                0x000fae96        0x4 /tmp/ccWJ2D8E.ltrans30.ltrans.o
 .bss.dclickstate2
                0x000fae9a        0x4 /tmp/ccWJ2D8E.ltrans30.ltrans.o
 .bss.dclicktime
                0x000fae9e        0x4 /tmp/ccWJ2D8E.ltrans30.ltrans.o
 .bss.dclickstate
                0x000faea2        0x4 /tmp/ccWJ2D8E.ltrans30.ltrans.o
 .bss.dclicks   0x000faea6        0x4 /tmp/ccWJ2D8E.ltrans30.ltrans.o
 .bss.turnheld  0x000faeaa        0x4 /tmp/ccWJ2D8E.ltrans30.ltrans.o
 .bss.maketic   0x000faeae        0x4 /tmp/ccWJ2D8E.ltrans30.ltrans.o
                0x000faeae                _maketic
 .bss.pagename  0x000faeb2        0x4 /tmp/ccWJ2D8E.ltrans31.ltrans.o
                0x000faeb2                _pagename
 *fill*         0x000faeb6        0x2 
 .bss           0x000faeb8        0xa /usr/m68k-ataribrown-elf/lib/m68020/softfp/libc.a(globals.o)
                0x000faeb8                __split_mem
                0x000faeba                ___DEFAULT_BUFSIZ__
                0x000faebe                ___libc_unix_names
 *fill*         0x000faec2        0x2 
 .bss           0x000faec4        0x4 /usr/m68k-ataribrown-elf/lib/m68020/softfp/libc.a(heapbase.o)
                0x000faec4                __heapbase
 .bss           0x000faec8        0x8 /usr/m68k-ataribrown-elf/lib/m68020/softfp/libc.a(malloc.o)
 .bss           0x000faed0        0x2 /usr/m68k-ataribrown-elf/lib/m68020/softfp/libc.a(defmode.o)
                0x000faed0                ___default_mode__
 *fill*         0x000faed2        0x2 
 .bss           0x000faed4        0x4 /usr/m68k-ataribrown-elf/lib/m68020/softfp/libc.a(strerror.o)
 .bss           0x000faed8     0x1494 /usr/m68k-ataribrown-elf/lib/m68020/softfp/libc.a(gethostnamadr.o)
 .bss           0x000fc36c      0x100 /usr/m68k-ataribrown-elf/lib/m68020/softfp/libc.a(res_query.o)
 .bss           0x000fc46c       0x10 /usr/m68k-ataribrown-elf/lib/m68020/softfp/libc.a(res_send.o)
 .bss           0x000fc47c        0x4 /usr/m68k-ataribrown-elf/lib/m68020/softfp/libc.a(do_stat.o)
                0x000fc47c                __x_Bit_set_in_stat
 .bss           0x000fc480        0x8 /usr/m68k-ataribrown-elf/lib/m68020/softfp/libc.a(uidgid.o)
                0x000fc480                ___gid
                0x000fc484                ___uid
 .bss           0x000fc488      0x424 /usr/m68k-ataribrown-elf/lib/m68020/softfp/libc.a(getpwuid.o)
 .bss           0x000fc8ac      0x414 /usr/m68k-ataribrown-elf/lib/m68020/softfp/libc.a(grp.o)
 .bss           0x000fccc0        0x4 /usr/m68k-ataribrown-elf/lib/m68020/softfp/libc.a(strtok.o)
 .bss           0x000fccc4      0x158 /usr/m68k-ataribrown-elf/lib/m68020/softfp/libc.a(localtime.o)
                0x000fccc4                _daylight
                0x000fccc8                _timezone
 .bss           0x000fce1c       0x48 /usr/m68k-ataribrown-elf/lib/m68020/softfp/libc.a(asctime.o)
 .bss           0x000fce64       0xb4 /usr/m68k-ataribrown-elf/lib/m68020/softfp/libc.a(strftime.o)
 *(COMMON)
 COMMON         0x000fcf18       0x10 /tmp/ccWJ2D8E.ltrans2.ltrans.o
                0x000fcf18                _sprites
                0x000fcf1c                _nodes
                0x000fcf20                _subsectors
                0x000fcf24                _numnodes
 COMMON         0x000fcf28        0x4 /tmp/ccWJ2D8E.ltrans4.ltrans.o
                0x000fcf28                _extralight
 COMMON         0x000fcf2c        0x4 /tmp/ccWJ2D8E.ltrans8.ltrans.o
                0x000fcf2c                _firstspritelump
 COMMON         0x000fcf30        0x2 /tmp/ccWJ2D8E.ltrans14.ltrans.o
                0x000fcf30                _linewidth
 COMMON         0x000fcf32      0xc08 /tmp/ccWJ2D8E.ltrans15.ltrans.o
                0x000fcf32                _dirtysectors
                0x000fd332                _lines
                0x000fd336                _dirtysectorlist
                0x000fdb36                _sectors
 COMMON         0x000fdb3a      0x300 /tmp/ccWJ2D8E.ltrans25.ltrans.o
                0x000fdb3a                _msbuf
                0x000fdd3a                _keybuf
 COMMON         0x000fde3a       0x32 /usr/m68k-ataribrown-elf/lib/m68020/softfp/libc.a(globals.o)
                0x000fde3a                ___has_no_ssystem
                0x000fde3e                ___mint
                0x000fde42                __num_at_exit
                0x000fde46                _environ
                0x000fde4a                __pdomain
                0x000fde4e                __starttime
                0x000fde52                __rootdir
                0x000fde54                __PgmSize
                0x000fde58                __at_exit
                0x000fde5c                __exit_dummy_decl
                0x000fde60                __base
                0x000fde64                _errno
                0x000fde68                __childtime
 COMMON         0x000fde6c        0x4 /usr/m68k-ataribrown-elf/lib/m68020/softfp/libc.a(inistack.o)
                0x000fde6c                __initial_stack
 COMMON         0x000fde70       0x88 /usr/m68k-ataribrown-elf/lib/m68020/softfp/libc.a(initsig.o)
                0x000fde70                __sig_handler
                0x000fdef0                __sigmask
                0x000fdef4                __sigpending
 COMMON         0x000fdef8        0x4 /usr/m68k-ataribrown-elf/lib/m68020/softfp/libc.a(gethostnamadr.o)
                0x000fdef8                _h_errno
 COMMON         0x000fdefc        0xc /usr/m68k-ataribrown-elf/lib/m68020/softfp/libc.a(alglobal.o)
                0x000fdefc                ___aline
                0x000fdf00                ___fonts
                0x000fdf04                ___funcs
 COMMON         0x000fdf08       0xf0 /usr/m68k-ataribrown-elf/lib/m68020/softfp/libc.a(isatty.o)
                0x000fdf08                ___open_stat
 COMMON         0x000fdff8      0x404 /usr/m68k-ataribrown-elf/lib/m68020/softfp/libc.a(reg-printf.o)
                0x000fdff8                ___printf_function_table
                0x000fdffc                ___printf_arginfo_table
                0x000fe3fc                . = ALIGN ((. != 0x0)?0x4:0x1)

BSS             0x000fe3fc    0xfb088
                [!provide]                PROVIDE (__start_BSS, .)
 BSS            0x000fe3fc    0xfb088 ../bmengine/libbmengine.a(bmengine.o)
                0x000fe3fc                _bss_prf_
                0x00102580                _nocache_shadow
                0x0010a678                _bss_memory_
                0x00112860                _bss_timing_
                0x00112864                _bss_dsplib_
                0x001130d4                _bss_video_
                0x00113370                _mouse_dx
                0x00113372                _mouse_dy
                0x00113378                _bss_ikbd_
                0x0011365c                _bss_sys_
                0x00113678                _bss_cpu_
                0x001136dc                _PVS_Array
                0x001136f8                _bss_lmodules_
                0x00113768                _bss_io_
                0x00113818                sprite_space
                0x00127818                flat_space
                0x0012c018                patch_taglist
                0x0012c498                _bss_textures_
                0x0012c788                _bss_dtex_
                0x0012c7a4                _bss_dpatch_
                0x0012cad8                _bss_dtexutl_
                0x0012d500                _bss_cache_
                0x0014d93c                _bss_engine_
                0x0014d940                _bss_bspd_
                0x00158270                _bss_shards_
                0x0016d284                _bss_sprites_
                0x00189298                _bss_render_
                0x0018929c                _BM_fullbright_table
                0x001e92b0                _bss_lighting_
                0x001ecab0                _bss_dshader_
                0x001f40e8                _framebuffer_window
                0x001f43f5                _console_enabled
                0x001f43fc                _gmet_gametic
                0x001f4400                _gmet_mobjtic
                0x001f4404                _gmet_mobjthn
                0x001f4408                _gmet_mobjlos
                0x001f440c                _bmticks
                0x001f4414                _bss_api_
                0x001f4424                _crosssubsectorflag
                0x001f4428                _interceptdebug
                0x001f442c                _bss_psight_
                0x001f4432                _audioframe_collisions
                0x001f4434                _testcounter
                0x001f4438                _bss_isound_
                0x001f4478                _bss_doom_
                0x001f4480                _ssp_stack_limit
                0x001f9480                _ssp_stack
                [!provide]                PROVIDE (__stop_BSS, .)
                0x001f9484                . = ALIGN (0x4)
                0x001f9484                . = SEGMENT_START ("ldata-segment", .)
                0x001f9484                . = ALIGN (0x4)
                0x001f9484                _end = .
                [!provide]                PROVIDE (end, .)
                0x001f9484                . = DATA_SEGMENT_END (.)

.stab
 *(.stab)

.stabstr
 *(.stabstr)

.stab.excl
 *(.stab.excl)

.stab.exclstr
 *(.stab.exclstr)

.stab.index
 *(.stab.index)

.stab.indexstr
 *(.stab.indexstr)

.comment        0x00000000       0x11
 *(.comment)
 .comment       0x00000000       0x12 /tmp/ccWJ2D8E.ltrans0.ltrans.o
 .comment       0x00000000       0x12 /tmp/ccWJ2D8E.ltrans1.ltrans.o
 .comment       0x00000000       0x12 /tmp/ccWJ2D8E.ltrans2.ltrans.o
 .comment       0x00000000       0x12 /tmp/ccWJ2D8E.ltrans3.ltrans.o
 .comment       0x00000000       0x12 /tmp/ccWJ2D8E.ltrans4.ltrans.o
 .comment       0x00000000       0x12 /tmp/ccWJ2D8E.ltrans5.ltrans.o
 .comment       0x00000000       0x12 /tmp/ccWJ2D8E.ltrans6.ltrans.o
 .comment       0x00000000       0x12 /tmp/ccWJ2D8E.ltrans7.ltrans.o
 .comment       0x00000000       0x12 /tmp/ccWJ2D8E.ltrans8.ltrans.o
 .comment       0x00000000       0x12 /tmp/ccWJ2D8E.ltrans9.ltrans.o
 .comment       0x00000000       0x12 /tmp/ccWJ2D8E.ltrans10.ltrans.o
 .comment       0x00000000       0x12 /tmp/ccWJ2D8E.ltrans11.ltrans.o
 .comment       0x00000000       0x12 /tmp/ccWJ2D8E.ltrans12.ltrans.o
 .comment       0x00000000       0x12 /tmp/ccWJ2D8E.ltrans13.ltrans.o
 .comment       0x00000000       0x12 /tmp/ccWJ2D8E.ltrans14.ltrans.o
 .comment       0x00000000       0x12 /tmp/ccWJ2D8E.ltrans15.ltrans.o
 .comment       0x00000000       0x12 /tmp/ccWJ2D8E.ltrans16.ltrans.o
 .comment       0x00000000       0x12 /tmp/ccWJ2D8E.ltrans17.ltrans.o
 .comment       0x00000000       0x12 /tmp/ccWJ2D8E.ltrans18.ltrans.o
 .comment       0x00000000       0x12 /tmp/ccWJ2D8E.ltrans19.ltrans.o
 .comment       0x00000000       0x12 /tmp/ccWJ2D8E.ltrans20.ltrans.o
 .comment       0x00000000       0x12 /tmp/ccWJ2D8E.ltrans21.ltrans.o
 .comment       0x00000000       0x12 /tmp/ccWJ2D8E.ltrans22.ltrans.o
 .comment       0x00000000       0x12 /tmp/ccWJ2D8E.ltrans23.ltrans.o
 .comment       0x00000000       0x12 /tmp/ccWJ2D8E.ltrans24.ltrans.o
 .comment       0x00000000       0x12 /tmp/ccWJ2D8E.ltrans25.ltrans.o
 .comment       0x00000000       0x12 /tmp/ccWJ2D8E.ltrans26.ltrans.o
 .comment       0x00000000       0x12 /tmp/ccWJ2D8E.ltrans27.ltrans.o
 .comment       0x00000000       0x12 /tmp/ccWJ2D8E.ltrans28.ltrans.o
 .comment       0x00000000       0x12 /tmp/ccWJ2D8E.ltrans29.ltrans.o
 .comment       0x00000000       0x12 /tmp/ccWJ2D8E.ltrans30.ltrans.o
 .comment       0x00000000       0x12 /tmp/ccWJ2D8E.ltrans31.ltrans.o
 .comment       0x00000000       0x11 /usr/m68k-ataribrown-elf/lib/m68020/softfp/libc.a(crtinit.o)
                                 0x12 (size before relaxing)
 .comment       0x00000011       0x12 /usr/m68k-ataribrown-elf/lib/m68020/softfp/libc.a(ctype.o)
 .comment       0x00000011       0x12 /usr/m68k-ataribrown-elf/lib/m68020/softfp/libc.a(getenv.o)
 .comment       0x00000011       0x12 /usr/m68k-ataribrown-elf/lib/m68020/softfp/libc.a(globals.o)
 .comment       0x00000011       0x12 /usr/m68k-ataribrown-elf/lib/m68020/softfp/libc.a(heapbase.o)
 .comment       0x00000011       0x12 /usr/m68k-ataribrown-elf/lib/m68020/softfp/libc.a(inistack.o)
 .comment       0x00000011       0x12 /usr/m68k-ataribrown-elf/lib/m68020/softfp/libc.a(main.o)
 .comment       0x00000011       0x12 /usr/m68k-ataribrown-elf/lib/m68020/softfp/libc.a(malloc.o)
 .comment       0x00000011       0x12 /usr/m68k-ataribrown-elf/lib/m68020/softfp/libc.a(realloc.o)
 .comment       0x00000011       0x12 /usr/m68k-ataribrown-elf/lib/m68020/softfp/libc.a(stksiz.o)
 .comment       0x00000011       0x12 /usr/m68k-ataribrown-elf/lib/m68020/softfp/libc.a(unx2dos.o)
 .comment       0x00000011       0x12 /usr/m68k-ataribrown-elf/lib/m68020/softfp/libc.a(initsig.o)
 .comment       0x00000011       0x12 /usr/m68k-ataribrown-elf/lib/m68020/softfp/libc.a(binmode.o)
 .comment       0x00000011       0x12 /usr/m68k-ataribrown-elf/lib/m68020/softfp/libc.a(defmode.o)
 .comment       0x00000011       0x12 /usr/m68k-ataribrown-elf/lib/m68020/softfp/libc.a(fclose.o)
 .comment       0x00000011       0x12 /usr/m68k-ataribrown-elf/lib/m68020/softfp/libc.a(fflush.o)
 .comment       0x00000011       0x12 /usr/m68k-ataribrown-elf/lib/m68020/softfp/libc.a(fgets.o)
 .comment       0x00000011       0x12 /usr/m68k-ataribrown-elf/lib/m68020/softfp/libc.a(fileno.o)
 .comment       0x00000011       0x12 /usr/m68k-ataribrown-elf/lib/m68020/softfp/libc.a(fopen.o)
 .comment       0x00000011       0x12 /usr/m68k-ataribrown-elf/lib/m68020/softfp/libc.a(fread.o)
 .comment       0x00000011       0x12 /usr/m68k-ataribrown-elf/lib/m68020/softfp/libc.a(fseek.o)
 .comment       0x00000011       0x12 /usr/m68k-ataribrown-elf/lib/m68020/softfp/libc.a(ftell.o)
 .comment       0x00000011       0x12 /usr/m68k-ataribrown-elf/lib/m68020/softfp/libc.a(getchar.o)
 .comment       0x00000011       0x12 /usr/m68k-ataribrown-elf/lib/m68020/softfp/libc.a(internals.o)
 .comment       0x00000011       0x12 /usr/m68k-ataribrown-elf/lib/m68020/softfp/libc.a(newstream.o)
 .comment       0x00000011       0x12 /usr/m68k-ataribrown-elf/lib/m68020/softfp/libc.a(setbuf.o)
 .comment       0x00000011       0x12 /usr/m68k-ataribrown-elf/lib/m68020/softfp/libc.a(setvbuf.o)
 .comment       0x00000011       0x12 /usr/m68k-ataribrown-elf/lib/m68020/softfp/libc.a(stdio_init.o)
 .comment       0x00000011       0x12 /usr/m68k-ataribrown-elf/lib/m68020/softfp/libc.a(sysd-stdio.o)
 .comment       0x00000011       0x12 /usr/m68k-ataribrown-elf/lib/m68020/softfp/libc.a(atoi.o)
 .comment       0x00000011       0x12 /usr/m68k-ataribrown-elf/lib/m68020/softfp/libc.a(exit.o)
 .comment       0x00000011       0x12 /usr/m68k-ataribrown-elf/lib/m68020/softfp/libc.a(strtol.o)
 .comment       0x00000011       0x12 /usr/m68k-ataribrown-elf/lib/m68020/softfp/libc.a(memccpy.o)
 .comment       0x00000011       0x12 /usr/m68k-ataribrown-elf/lib/m68020/softfp/libc.a(strcmp.o)
 .comment       0x00000011       0x12 /usr/m68k-ataribrown-elf/lib/m68020/softfp/libc.a(strerror.o)
 .comment       0x00000011       0x12 /usr/m68k-ataribrown-elf/lib/m68020/softfp/libc.a(strlen.o)
 .comment       0x00000011       0x12 /usr/m68k-ataribrown-elf/lib/m68020/softfp/libc.a(strncat.o)
 .comment       0x00000011       0x12 /usr/m68k-ataribrown-elf/lib/m68020/softfp/libc.a(strncmp.o)
 .comment       0x00000011       0x12 /usr/m68k-ataribrown-elf/lib/m68020/softfp/libc.a(strncpy.o)
 .comment       0x00000011       0x12 /usr/m68k-ataribrown-elf/lib/m68020/softfp/libc.a(strrchr.o)
 .comment       0x00000011       0x12 /usr/m68k-ataribrown-elf/lib/m68020/softfp/libc.a(strupr.o)
 .comment       0x00000011       0x12 /usr/m68k-ataribrown-elf/lib/m68020/softfp/libc.a(access.o)
 .comment       0x00000011       0x12 /usr/m68k-ataribrown-elf/lib/m68020/softfp/libc.a(close.o)
 .comment       0x00000011       0x12 /usr/m68k-ataribrown-elf/lib/m68020/softfp/libc.a(dup2.o)
 .comment       0x00000011       0x12 /usr/m68k-ataribrown-elf/lib/m68020/softfp/libc.a(fstat.o)
 .comment       0x00000011       0x12 /usr/m68k-ataribrown-elf/lib/m68020/softfp/libc.a(getgid.o)
 .comment       0x00000011       0x12 /usr/m68k-ataribrown-elf/lib/m68020/softfp/libc.a(getgroups.o)
 .comment       0x00000011       0x12 /usr/m68k-ataribrown-elf/lib/m68020/softfp/libc.a(gethostname.o)
 .comment       0x00000011       0x12 /usr/m68k-ataribrown-elf/lib/m68020/softfp/libc.a(getpagesize.o)
 .comment       0x00000011       0x12 /usr/m68k-ataribrown-elf/lib/m68020/softfp/libc.a(getuid.o)
 .comment       0x00000011       0x12 /usr/m68k-ataribrown-elf/lib/m68020/softfp/libc.a(ioctl.o)
 .comment       0x00000011       0x12 /usr/m68k-ataribrown-elf/lib/m68020/softfp/libc.a(lseek.o)
 .comment       0x00000011       0x12 /usr/m68k-ataribrown-elf/lib/m68020/softfp/libc.a(mkdir.o)
 .comment       0x00000011       0x12 /usr/m68k-ataribrown-elf/lib/m68020/softfp/libc.a(open.o)
 .comment       0x00000011       0x12 /usr/m68k-ataribrown-elf/lib/m68020/softfp/libc.a(read.o)
 .comment       0x00000011       0x12 /usr/m68k-ataribrown-elf/lib/m68020/softfp/libc.a(sbrk.o)
 .comment       0x00000011       0x12 /usr/m68k-ataribrown-elf/lib/m68020/softfp/libc.a(stat.o)
 .comment       0x00000011       0x12 /usr/m68k-ataribrown-elf/lib/m68020/softfp/libc.a(sysctl.o)
 .comment       0x00000011       0x12 /usr/m68k-ataribrown-elf/lib/m68020/softfp/libc.a(write.o)
 .comment       0x00000011       0x12 /usr/m68k-ataribrown-elf/lib/m68020/softfp/libc.a(bind.o)
 .comment       0x00000011       0x12 /usr/m68k-ataribrown-elf/lib/m68020/softfp/libc.a(gethostnamadr.o)
 .comment       0x00000011       0x12 /usr/m68k-ataribrown-elf/lib/m68020/softfp/libc.a(inet_addr.o)
 .comment       0x00000011       0x12 /usr/m68k-ataribrown-elf/lib/m68020/softfp/libc.a(recvfrom.o)
 .comment       0x00000011       0x12 /usr/m68k-ataribrown-elf/lib/m68020/softfp/libc.a(res_comp.o)
 .comment       0x00000011       0x12 /usr/m68k-ataribrown-elf/lib/m68020/softfp/libc.a(res_query.o)
 .comment       0x00000011       0x12 /usr/m68k-ataribrown-elf/lib/m68020/softfp/libc.a(res_send.o)
 .comment       0x00000011       0x12 /usr/m68k-ataribrown-elf/lib/m68020/softfp/libc.a(send.o)
 .comment       0x00000011       0x12 /usr/m68k-ataribrown-elf/lib/m68020/softfp/libc.a(sendmsg.o)
 .comment       0x00000011       0x12 /usr/m68k-ataribrown-elf/lib/m68020/softfp/libc.a(sendto.o)
 .comment       0x00000011       0x12 /usr/m68k-ataribrown-elf/lib/m68020/softfp/libc.a(sncpy.o)
 .comment       0x00000011       0x12 /usr/m68k-ataribrown-elf/lib/m68020/softfp/libc.a(socket.o)
 .comment       0x00000011       0x12 /usr/m68k-ataribrown-elf/lib/m68020/softfp/libc.a(sockets_global.o)
 .comment       0x00000011       0x12 /usr/m68k-ataribrown-elf/lib/m68020/softfp/libc.a(alglobal.o)
 .comment       0x00000011       0x12 /usr/m68k-ataribrown-elf/lib/m68020/softfp/libc.a(assert.o)
 .comment       0x00000011       0x12 /usr/m68k-ataribrown-elf/lib/m68020/softfp/libc.a(console.o)
 .comment       0x00000011       0x12 /usr/m68k-ataribrown-elf/lib/m68020/softfp/libc.a(do_fstat.o)
 .comment       0x00000011       0x12 /usr/m68k-ataribrown-elf/lib/m68020/softfp/libc.a(do_stat.o)
 .comment       0x00000011       0x12 /usr/m68k-ataribrown-elf/lib/m68020/softfp/libc.a(enoent.o)
 .comment       0x00000011       0x12 /usr/m68k-ataribrown-elf/lib/m68020/softfp/libc.a(inode.o)
 .comment       0x00000011       0x12 /usr/m68k-ataribrown-elf/lib/m68020/softfp/libc.a(isatty.o)
 .comment       0x00000011       0x12 /usr/m68k-ataribrown-elf/lib/m68020/softfp/libc.a(isctty.o)
 .comment       0x00000011       0x12 /usr/m68k-ataribrown-elf/lib/m68020/softfp/libc.a(quickstat.o)
 .comment       0x00000011       0x12 /usr/m68k-ataribrown-elf/lib/m68020/softfp/libc.a(toxxx.o)
 .comment       0x00000011       0x12 /usr/m68k-ataribrown-elf/lib/m68020/softfp/libc.a(uidgid.o)
 .comment       0x00000011       0x12 /usr/m68k-ataribrown-elf/lib/m68020/softfp/libc.a(unixtime.o)
 .comment       0x00000011       0x12 /usr/m68k-ataribrown-elf/lib/m68020/softfp/libc.a(raise.o)
 .comment       0x00000011       0x12 /usr/m68k-ataribrown-elf/lib/m68020/softfp/libc.a(getpwuid.o)
 .comment       0x00000011       0x12 /usr/m68k-ataribrown-elf/lib/m68020/softfp/libc.a(getpwuid_r.o)
 .comment       0x00000011       0x12 /usr/m68k-ataribrown-elf/lib/m68020/softfp/libc.a(grp.o)
 .comment       0x00000011       0x12 /usr/m68k-ataribrown-elf/lib/m68020/softfp/libc.a(fcloseall.o)
 .comment       0x00000011       0x12 /usr/m68k-ataribrown-elf/lib/m68020/softfp/libc.a(fprintf.o)
 .comment       0x00000011       0x12 /usr/m68k-ataribrown-elf/lib/m68020/softfp/libc.a(fwrite.o)
 .comment       0x00000011       0x12 /usr/m68k-ataribrown-elf/lib/m68020/softfp/libc.a(itoa-digits.o)
 .comment       0x00000011       0x12 /usr/m68k-ataribrown-elf/lib/m68020/softfp/libc.a(rewind.o)
 .comment       0x00000011       0x12 /usr/m68k-ataribrown-elf/lib/m68020/softfp/libc.a(sprintf.o)
 .comment       0x00000011       0x12 /usr/m68k-ataribrown-elf/lib/m68020/softfp/libc.a(vfprintf.o)
 .comment       0x00000011       0x12 /usr/m68k-ataribrown-elf/lib/m68020/softfp/libc.a(vsprintf.o)
 .comment       0x00000011       0x12 /usr/m68k-ataribrown-elf/lib/m68020/softfp/libc.a(strtoul.o)
 .comment       0x00000011       0x12 /usr/m68k-ataribrown-elf/lib/m68020/softfp/libc.a(bcmp.o)
 .comment       0x00000011       0x12 /usr/m68k-ataribrown-elf/lib/m68020/softfp/libc.a(memchr.o)
 .comment       0x00000011       0x12 /usr/m68k-ataribrown-elf/lib/m68020/softfp/libc.a(mempcpy.o)
 .comment       0x00000011       0x12 /usr/m68k-ataribrown-elf/lib/m68020/softfp/libc.a(strcasecmp.o)
 .comment       0x00000011       0x12 /usr/m68k-ataribrown-elf/lib/m68020/softfp/libc.a(strchr.o)
 .comment       0x00000011       0x12 /usr/m68k-ataribrown-elf/lib/m68020/softfp/libc.a(strcpy.o)
 .comment       0x00000011       0x12 /usr/m68k-ataribrown-elf/lib/m68020/softfp/libc.a(strerror_r.o)
 .comment       0x00000011       0x12 /usr/m68k-ataribrown-elf/lib/m68020/softfp/libc.a(strncasecmp.o)
 .comment       0x00000011       0x12 /usr/m68k-ataribrown-elf/lib/m68020/softfp/libc.a(strnlen.o)
 .comment       0x00000011       0x12 /usr/m68k-ataribrown-elf/lib/m68020/softfp/libc.a(strpbrk.o)
 .comment       0x00000011       0x12 /usr/m68k-ataribrown-elf/lib/m68020/softfp/libc.a(strtok.o)
 .comment       0x00000011       0x12 /usr/m68k-ataribrown-elf/lib/m68020/softfp/libc.a(strtok_r.o)
 .comment       0x00000011       0x12 /usr/m68k-ataribrown-elf/lib/m68020/softfp/libc.a(localtime.o)
 .comment       0x00000011       0x12 /usr/m68k-ataribrown-elf/lib/m68020/softfp/libc.a(chmod.o)
 .comment       0x00000011       0x12 /usr/m68k-ataribrown-elf/lib/m68020/softfp/libc.a(getegid.o)
 .comment       0x00000011       0x12 /usr/m68k-ataribrown-elf/lib/m68020/softfp/libc.a(geteuid.o)
 .comment       0x00000011       0x12 /usr/m68k-ataribrown-elf/lib/m68020/softfp/libc.a(getpid.o)
 .comment       0x00000011       0x12 /usr/m68k-ataribrown-elf/lib/m68020/softfp/libc.a(kill.o)
 .comment       0x00000011       0x12 /usr/m68k-ataribrown-elf/lib/m68020/softfp/libc.a(select.o)
 .comment       0x00000011       0x12 /usr/m68k-ataribrown-elf/lib/m68020/softfp/libc.a(time.o)
 .comment       0x00000011       0x12 /usr/m68k-ataribrown-elf/lib/m68020/softfp/libc.a(connect.o)
 .comment       0x00000011       0x12 /usr/m68k-ataribrown-elf/lib/m68020/softfp/libc.a(recv.o)
 .comment       0x00000011       0x12 /usr/m68k-ataribrown-elf/lib/m68020/softfp/libc.a(res_init.o)
 .comment       0x00000011       0x12 /usr/m68k-ataribrown-elf/lib/m68020/softfp/libc.a(res_mkquery.o)
 .comment       0x00000011       0x12 /usr/m68k-ataribrown-elf/lib/m68020/softfp/libc.a(abort.o)
 .comment       0x00000011       0x12 /usr/m68k-ataribrown-elf/lib/m68020/softfp/libc.a(calloc.o)
 .comment       0x00000011       0x12 /usr/m68k-ataribrown-elf/lib/m68020/softfp/libc.a(fgetpwent_r.o)
 .comment       0x00000011       0x12 /usr/m68k-ataribrown-elf/lib/m68020/softfp/libc.a(_itoa.o)
 .comment       0x00000011       0x12 /usr/m68k-ataribrown-elf/lib/m68020/softfp/libc.a(clearerr.o)
 .comment       0x00000011       0x12 /usr/m68k-ataribrown-elf/lib/m68020/softfp/libc.a(lockfile.o)
 .comment       0x00000011       0x12 /usr/m68k-ataribrown-elf/lib/m68020/softfp/libc.a(printf_fp.o)
 .comment       0x00000011       0x12 /usr/m68k-ataribrown-elf/lib/m68020/softfp/libc.a(printf_fphex.o)
 .comment       0x00000011       0x12 /usr/m68k-ataribrown-elf/lib/m68020/softfp/libc.a(reg-printf.o)
 .comment       0x00000011       0x12 /usr/m68k-ataribrown-elf/lib/m68020/softfp/libc.a(ungetc.o)
 .comment       0x00000011       0x12 /usr/m68k-ataribrown-elf/lib/m68020/softfp/libc.a(fpioconst.o)
 .comment       0x00000011       0x12 /usr/m68k-ataribrown-elf/lib/m68020/softfp/libc.a(asctime.o)
 .comment       0x00000011       0x12 /usr/m68k-ataribrown-elf/lib/m68020/softfp/libc.a(strftime.o)
 .comment       0x00000011       0x12 /usr/m68k-ataribrown-elf/lib/m68020/softfp/libc.a(gettimeofday.o)
 .comment       0x00000011       0x12 /usr/m68k-ataribrown-elf/lib/m68020/softfp/libc.a(poll.o)
 .comment       0x00000011       0x12 /usr/m68k-ataribrown-elf/lib/m68020/softfp/libc.a(inet_makeaddr.o)
 .comment       0x00000011       0x12 /usr/m68k-ataribrown-elf/lib/m68020/softfp/libc.a(dbl2mpn.o)
 .comment       0x00000011       0x12 /usr/m68k-ataribrown-elf/lib/m68020/softfp/libc.a(ldbl2mpn.o)
 .comment       0x00000011       0x12 /usr/m68k-ataribrown-elf/lib/m68020/softfp/libc.a(mpn-cmp.o)
 .comment       0x00000011       0x12 /usr/m68k-ataribrown-elf/lib/m68020/softfp/libc.a(mpn-divrem.o)
 .comment       0x00000011       0x12 /usr/m68k-ataribrown-elf/lib/m68020/softfp/libc.a(mpn-lshift.o)
 .comment       0x00000011       0x12 /usr/m68k-ataribrown-elf/lib/m68020/softfp/libc.a(mpn-mul.o)
 .comment       0x00000011       0x12 /usr/m68k-ataribrown-elf/lib/m68020/softfp/libc.a(mpn-mul_1.o)
 .comment       0x00000011       0x12 /usr/m68k-ataribrown-elf/lib/m68020/softfp/libc.a(mpn-mul_n.o)
 .comment       0x00000011       0x12 /usr/m68k-ataribrown-elf/lib/m68020/softfp/libc.a(mpn-rshift.o)
 .comment       0x00000011       0x12 /usr/m68k-ataribrown-elf/lib/m68020/softfp/libc.a(mpn-sub_n.o)
 .comment       0x00000011       0x12 /usr/m68k-ataribrown-elf/lib/m68020/softfp/libc.a(mpn-submul_1.o)
 .comment       0x00000011       0x12 /usr/m68k-ataribrown-elf/lib/m68020/softfp/libc.a(s_isinf.o)
 .comment       0x00000011       0x12 /usr/m68k-ataribrown-elf/lib/m68020/softfp/libc.a(s_isinfl.o)
 .comment       0x00000011       0x12 /usr/m68k-ataribrown-elf/lib/m68020/softfp/libc.a(s_isnan.o)
 .comment       0x00000011       0x12 /usr/m68k-ataribrown-elf/lib/m68020/softfp/libc.a(s_isnanl.o)
 .comment       0x00000011       0x12 /usr/m68k-ataribrown-elf/lib/m68020/softfp/libc.a(s_signbit.o)
 .comment       0x00000011       0x12 /usr/m68k-ataribrown-elf/lib/m68020/softfp/libc.a(s_signbitl.o)
 .comment       0x00000011       0x12 /usr/m68k-ataribrown-elf/lib/m68020/softfp/libc.a(setlocale.o)
 .comment       0x00000011       0x12 /usr/m68k-ataribrown-elf/lib/m68020/softfp/libc.a(fputc.o)
 .comment       0x00000011       0x12 /usr/m68k-ataribrown-elf/lib/m68020/softfp/libc.a(mpn-add_n.o)
 .comment       0x00000011       0x12 /usr/m68k-ataribrown-elf/lib/m68020/softfp/libc.a(mpn-addmul_1.o)
 .comment       0x00000011       0x12 /lib/gcc/m68k-ataribrown-elf/6.2.0/m68020/softfp/libgcc.a(fpgnulib.o)
 .comment       0x00000011       0x12 /lib/gcc/m68k-ataribrown-elf/6.2.0/m68020/softfp/libgcc.a(xfgnulib.o)
 .comment       0x00000011       0x12 /usr/m68k-ataribrown-elf/lib/m68020/softfp/libc.a(fscanf.o)
 .comment       0x00000011       0x12 /usr/m68k-ataribrown-elf/lib/m68020/softfp/libc.a(printf.o)
 .comment       0x00000011       0x12 /usr/m68k-ataribrown-elf/lib/m68020/softfp/libc.a(sscanf.o)
 .comment       0x00000011       0x12 /usr/m68k-ataribrown-elf/lib/m68020/softfp/libc.a(vfscanf.o)
 .comment       0x00000011       0x12 /usr/m68k-ataribrown-elf/lib/m68020/softfp/libc.a(vsscanf.o)
 .comment       0x00000011       0x12 /usr/m68k-ataribrown-elf/lib/m68020/softfp/libc.a(strtod.o)
 .comment       0x00000011       0x12 /usr/m68k-ataribrown-elf/lib/m68020/softfp/libc.a(strtof.o)
 .comment       0x00000011       0x12 /usr/m68k-ataribrown-elf/lib/m68020/softfp/libc.a(strtold.o)
 .comment       0x00000011       0x12 /usr/m68k-ataribrown-elf/lib/m68020/softfp/libc.a(strtoll.o)
 .comment       0x00000011       0x12 /usr/m68k-ataribrown-elf/lib/m68020/softfp/libc.a(strtoull.o)
 .comment       0x00000011       0x12 /usr/m68k-ataribrown-elf/lib/m68020/softfp/libc.a(mpn2dbl.o)
 .comment       0x00000011       0x12 /usr/m68k-ataribrown-elf/lib/m68020/softfp/libc.a(mpn2flt.o)
 .comment       0x00000011       0x12 /usr/m68k-ataribrown-elf/lib/m68020/softfp/libc.a(mpn2ldbl.o)
 .comment       0x00000011       0x12 /lib/gcc/m68k-ataribrown-elf/6.2.0/m68020/softfp/libgcc.a(_muldi3.o)
 .comment       0x00000011       0x12 /lib/gcc/m68k-ataribrown-elf/6.2.0/m68020/softfp/libgcc.a(_udivdi3.o)
 .comment       0x00000011       0x12 /lib/gcc/m68k-ataribrown-elf/6.2.0/m68020/softfp/libgcc.a(_umoddi3.o)

.debug
 *(.debug)

.line
 *(.line)

.debug_srcinfo
 *(.debug_srcinfo)

.debug_sfnames
 *(.debug_sfnames)

.debug_aranges  0x00000000      0x100
 *(.debug_aranges)
 .debug_aranges
                0x00000000       0x20 /lib/gcc/m68k-ataribrown-elf/6.2.0/m68020/softfp/libgcc.a(_double.o)
 .debug_aranges
                0x00000020       0x20 /lib/gcc/m68k-ataribrown-elf/6.2.0/m68020/softfp/libgcc.a(_floatex.o)
 .debug_aranges
                0x00000040       0x20 /lib/gcc/m68k-ataribrown-elf/6.2.0/m68020/softfp/libgcc.a(_ltdf2.o)
 .debug_aranges
                0x00000060       0x20 /lib/gcc/m68k-ataribrown-elf/6.2.0/m68020/softfp/libgcc.a(fpgnulib.o)
 .debug_aranges
                0x00000080       0x20 /lib/gcc/m68k-ataribrown-elf/6.2.0/m68020/softfp/libgcc.a(xfgnulib.o)
 .debug_aranges
                0x000000a0       0x20 /lib/gcc/m68k-ataribrown-elf/6.2.0/m68020/softfp/libgcc.a(_muldi3.o)
 .debug_aranges
                0x000000c0       0x20 /lib/gcc/m68k-ataribrown-elf/6.2.0/m68020/softfp/libgcc.a(_udivdi3.o)
 .debug_aranges
                0x000000e0       0x20 /lib/gcc/m68k-ataribrown-elf/6.2.0/m68020/softfp/libgcc.a(_umoddi3.o)

.debug_pubnames
 *(.debug_pubnames)

.debug_info     0x00000000     0x22a5
 *(.debug_info .gnu.linkonce.wi.*)
 .debug_info    0x00000000       0x9e /lib/gcc/m68k-ataribrown-elf/6.2.0/m68020/softfp/libgcc.a(_double.o)
 .debug_info    0x0000009e       0x9e /lib/gcc/m68k-ataribrown-elf/6.2.0/m68020/softfp/libgcc.a(_floatex.o)
 .debug_info    0x0000013c       0x9e /lib/gcc/m68k-ataribrown-elf/6.2.0/m68020/softfp/libgcc.a(_ltdf2.o)
 .debug_info    0x000001da      0x44e /lib/gcc/m68k-ataribrown-elf/6.2.0/m68020/softfp/libgcc.a(fpgnulib.o)
 .debug_info    0x00000628      0x651 /lib/gcc/m68k-ataribrown-elf/6.2.0/m68020/softfp/libgcc.a(xfgnulib.o)
 .debug_info    0x00000c79      0x66e /lib/gcc/m68k-ataribrown-elf/6.2.0/m68020/softfp/libgcc.a(_muldi3.o)
 .debug_info    0x000012e7      0x7d9 /lib/gcc/m68k-ataribrown-elf/6.2.0/m68020/softfp/libgcc.a(_udivdi3.o)
 .debug_info    0x00001ac0      0x7e5 /lib/gcc/m68k-ataribrown-elf/6.2.0/m68020/softfp/libgcc.a(_umoddi3.o)

.debug_abbrev   0x00000000      0x83e
 *(.debug_abbrev)
 .debug_abbrev  0x00000000       0x14 /lib/gcc/m68k-ataribrown-elf/6.2.0/m68020/softfp/libgcc.a(_double.o)
 .debug_abbrev  0x00000014       0x14 /lib/gcc/m68k-ataribrown-elf/6.2.0/m68020/softfp/libgcc.a(_floatex.o)
 .debug_abbrev  0x00000028       0x14 /lib/gcc/m68k-ataribrown-elf/6.2.0/m68020/softfp/libgcc.a(_ltdf2.o)
 .debug_abbrev  0x0000003c      0x1e1 /lib/gcc/m68k-ataribrown-elf/6.2.0/m68020/softfp/libgcc.a(fpgnulib.o)
 .debug_abbrev  0x0000021d      0x170 /lib/gcc/m68k-ataribrown-elf/6.2.0/m68020/softfp/libgcc.a(xfgnulib.o)
 .debug_abbrev  0x0000038d      0x155 /lib/gcc/m68k-ataribrown-elf/6.2.0/m68020/softfp/libgcc.a(_muldi3.o)
 .debug_abbrev  0x000004e2      0x1ab /lib/gcc/m68k-ataribrown-elf/6.2.0/m68020/softfp/libgcc.a(_udivdi3.o)
 .debug_abbrev  0x0000068d      0x1b1 /lib/gcc/m68k-ataribrown-elf/6.2.0/m68020/softfp/libgcc.a(_umoddi3.o)

.debug_line     0x00000000      0xa3a
 *(.debug_line .debug_line.* .debug_line_end)
 .debug_line    0x00000000      0x3e4 /lib/gcc/m68k-ataribrown-elf/6.2.0/m68020/softfp/libgcc.a(_double.o)
 .debug_line    0x000003e4       0x7c /lib/gcc/m68k-ataribrown-elf/6.2.0/m68020/softfp/libgcc.a(_floatex.o)
 .debug_line    0x00000460       0x6b /lib/gcc/m68k-ataribrown-elf/6.2.0/m68020/softfp/libgcc.a(_ltdf2.o)
 .debug_line    0x000004cb      0x15e /lib/gcc/m68k-ataribrown-elf/6.2.0/m68020/softfp/libgcc.a(fpgnulib.o)
 .debug_line    0x00000629       0xca /lib/gcc/m68k-ataribrown-elf/6.2.0/m68020/softfp/libgcc.a(xfgnulib.o)
 .debug_line    0x000006f3       0xe6 /lib/gcc/m68k-ataribrown-elf/6.2.0/m68020/softfp/libgcc.a(_muldi3.o)
 .debug_line    0x000007d9      0x12b /lib/gcc/m68k-ataribrown-elf/6.2.0/m68020/softfp/libgcc.a(_udivdi3.o)
 .debug_line    0x00000904      0x136 /lib/gcc/m68k-ataribrown-elf/6.2.0/m68020/softfp/libgcc.a(_umoddi3.o)

.debug_frame    0x00000000      0x48c
 *(.debug_frame)
 .debug_frame   0x00000000      0x128 /lib/gcc/m68k-ataribrown-elf/6.2.0/m68020/softfp/libgcc.a(fpgnulib.o)
 .debug_frame   0x00000128      0x334 /lib/gcc/m68k-ataribrown-elf/6.2.0/m68020/softfp/libgcc.a(xfgnulib.o)
 .debug_frame   0x0000045c       0x30 /lib/gcc/m68k-ataribrown-elf/6.2.0/m68020/softfp/libgcc.a(_muldi3.o)

.debug_str      0x00000000      0xac5
 *(.debug_str)
 .debug_str     0x00000000      0x1dc /lib/gcc/m68k-ataribrown-elf/6.2.0/m68020/softfp/libgcc.a(fpgnulib.o)
                                0x21c (size before relaxing)
 .debug_str     0x000001dc       0xf7 /lib/gcc/m68k-ataribrown-elf/6.2.0/m68020/softfp/libgcc.a(xfgnulib.o)
                                0x27a (size before relaxing)
 .debug_str     0x000002d3      0x6f3 /lib/gcc/m68k-ataribrown-elf/6.2.0/m68020/softfp/libgcc.a(_muldi3.o)
                                0x863 (size before relaxing)
 .debug_str     0x000009c6       0xf5 /lib/gcc/m68k-ataribrown-elf/6.2.0/m68020/softfp/libgcc.a(_udivdi3.o)
                                0x89c (size before relaxing)
 .debug_str     0x00000abb        0xa /lib/gcc/m68k-ataribrown-elf/6.2.0/m68020/softfp/libgcc.a(_umoddi3.o)
                                0x89c (size before relaxing)

.debug_loc      0x00000000     0x1237
 *(.debug_loc)
 .debug_loc     0x00000000      0x61d /lib/gcc/m68k-ataribrown-elf/6.2.0/m68020/softfp/libgcc.a(fpgnulib.o)
 .debug_loc     0x0000061d       0x79 /lib/gcc/m68k-ataribrown-elf/6.2.0/m68020/softfp/libgcc.a(xfgnulib.o)
 .debug_loc     0x00000696      0x539 /lib/gcc/m68k-ataribrown-elf/6.2.0/m68020/softfp/libgcc.a(_udivdi3.o)
 .debug_loc     0x00000bcf      0x668 /lib/gcc/m68k-ataribrown-elf/6.2.0/m68020/softfp/libgcc.a(_umoddi3.o)

.debug_macinfo
 *(.debug_macinfo)

.debug_weaknames
 *(.debug_weaknames)

.debug_funcnames
 *(.debug_funcnames)

.debug_typenames
 *(.debug_typenames)

.debug_varnames
 *(.debug_varnames)

.debug_pubtypes
 *(.debug_pubtypes)

.debug_ranges   0x00000000       0x80
 *(.debug_ranges)
 .debug_ranges  0x00000000       0x18 /lib/gcc/m68k-ataribrown-elf/6.2.0/m68020/softfp/libgcc.a(fpgnulib.o)
 .debug_ranges  0x00000018       0x38 /lib/gcc/m68k-ataribrown-elf/6.2.0/m68020/softfp/libgcc.a(_udivdi3.o)
 .debug_ranges  0x00000050       0x30 /lib/gcc/m68k-ataribrown-elf/6.2.0/m68020/softfp/libgcc.a(_umoddi3.o)

.debug_macro
 *(.debug_macro)

.gnu.attributes
 *(.gnu.attributes)

/DISCARD/
 *(.note.GNU-stack)
 *(.gnu_debuglink)
 *(.gnu.lto_*)
OUTPUT(bmhat.elf elf32-m68k)
